                              1 ;--------------------------------------------------------
                              2 ; File Created by SDCC : FreeWare ANSI-C Compiler
                              3 ; Version 2.2.1 Sat Nov 30 18:49:56 2019
                              4 
                              5 ;--------------------------------------------------------
                              6 	.module lcc126640
                              7 	
                              8 ;--------------------------------------------------------
                              9 ; Public variables in this module
                             10 ;--------------------------------------------------------
                             11 	.globl _main
                             12 	.globl _checkcollision
                             13 	.globl __delay
                             14 	.globl _printf
                             15 	.globl _move_sprite
                             16 	.globl _set_sprite_tile
                             17 	.globl _set_sprite_data
                             18 	.globl _set_bkg_tiles
                             19 	.globl _set_bkg_data
                             20 	.globl _wait_vbl_done
                             21 	.globl _joypad
                             22 	.globl _score
                             23 	.globl _playerlocation
                             24 	.globl _MazeTiles
                             25 	.globl _PlayerCharacter
                             26 	.globl _Maze
                             27 	.globl _main
                             28 	.globl _checkcollision
                             29 	.globl __delay
                             30 ;--------------------------------------------------------
                             31 ; Externals used
                             32 ;--------------------------------------------------------
                             33 	.globl _IE_REG
                             34 	.globl _SVBK_REG
                             35 	.globl _OCPD_REG
                             36 	.globl _OCPS_REG
                             37 	.globl _BCPD_REG
                             38 	.globl _BCPS_REG
                             39 	.globl _RP_REG
                             40 	.globl _HDMA5_REG
                             41 	.globl _HDMA4_REG
                             42 	.globl _HDMA3_REG
                             43 	.globl _HDMA2_REG
                             44 	.globl _HDMA1_REG
                             45 	.globl _VBK_REG
                             46 	.globl _KEY1_REG
                             47 	.globl _WX_REG
                             48 	.globl _WY_REG
                             49 	.globl _OBP1_REG
                             50 	.globl _OBP0_REG
                             51 	.globl _BGP_REG
                             52 	.globl _DMA_REG
                             53 	.globl _LYC_REG
                             54 	.globl _LY_REG
                             55 	.globl _SCX_REG
                             56 	.globl _SCY_REG
                             57 	.globl _STAT_REG
                             58 	.globl _LCDC_REG
                             59 	.globl _NR52_REG
                             60 	.globl _NR51_REG
                             61 	.globl _NR50_REG
                             62 	.globl _NR44_REG
                             63 	.globl _NR43_REG
                             64 	.globl _NR42_REG
                             65 	.globl _NR41_REG
                             66 	.globl _NR34_REG
                             67 	.globl _NR33_REG
                             68 	.globl _NR32_REG
                             69 	.globl _NR31_REG
                             70 	.globl _NR30_REG
                             71 	.globl _NR24_REG
                             72 	.globl _NR23_REG
                             73 	.globl _NR22_REG
                             74 	.globl _NR21_REG
                             75 	.globl _NR14_REG
                             76 	.globl _NR13_REG
                             77 	.globl _NR12_REG
                             78 	.globl _NR11_REG
                             79 	.globl _NR10_REG
                             80 	.globl _IF_REG
                             81 	.globl _TAC_REG
                             82 	.globl _TMA_REG
                             83 	.globl _TIMA_REG
                             84 	.globl _DIV_REG
                             85 	.globl _SC_REG
                             86 	.globl _SB_REG
                             87 	.globl _P1_REG
                             88 	.globl _font_ibm_fixed
                             89 	.globl _font_min
                             90 	.globl _font_ibm
                             91 	.globl _font_italic
                             92 	.globl _font_spect
                             93 	.globl __io_out
                             94 	.globl __io_in
                             95 	.globl __io_status
                             96 	.globl _sys_time
                             97 	.globl __cpu
                             98 ;--------------------------------------------------------
                             99 ; special function registers
                            100 ;--------------------------------------------------------
                            101 ;--------------------------------------------------------
                            102 ; special function bits 
                            103 ;--------------------------------------------------------
                            104 ;--------------------------------------------------------
                            105 ; internal ram data
                            106 ;--------------------------------------------------------
                            107 	.area _DATA
   0000                     108 _Maze::
   0000                     109 	.ds 360
   0168                     110 _PlayerCharacter::
   0168                     111 	.ds 48
   0198                     112 _MazeTiles::
   0198                     113 	.ds 48
   01C8                     114 _windowmap::
   01C8                     115 	.ds 11
   01D3                     116 _playerlocation::
   01D3                     117 	.ds 2
   01D5                     118 _score::
   01D5                     119 	.ds 1
                            120 ;--------------------------------------------------------
                            121 ; overlayable items in internal ram 
                            122 ;--------------------------------------------------------
                            123 	.area _OVERLAY
                            124 ;--------------------------------------------------------
                            125 ; indirectly addressable internal ram data
                            126 ;--------------------------------------------------------
                            127 	.area _ISEG
                            128 ;--------------------------------------------------------
                            129 ; bit data
                            130 ;--------------------------------------------------------
                            131 	.area _BSEG
                            132 ;--------------------------------------------------------
                            133 ; external ram data
                            134 ;--------------------------------------------------------
                            135 	.area _XSEG
                            136 ;--------------------------------------------------------
                            137 ; global & static initialisations
                            138 ;--------------------------------------------------------
                            139 	.area _GSINIT
                            140 	.area _GSFINAL
                            141 	.area _GSINIT
                            142 ;	main.c 154
                            143 ; genAssign (pointer)
   0000 11 00 00            144 	ld	de,#_Maze + 0
   0003 3E 01               145 	ld	a,#0x01
   0005 12                  146 	ld	(de),a
                            147 ; genPlus
                            148 ; genPlusIncr
   0006 11 01 00            149 	ld	de,#_Maze + 0 + 1
                            150 ; genAssign (pointer)
   0009 3E 01               151 	ld	a,#0x01
   000B 12                  152 	ld	(de),a
                            153 ; genPlus
                            154 ; genPlusIncr
   000C 11 02 00            155 	ld	de,#_Maze + 0 + 2
                            156 ; genAssign (pointer)
   000F 3E 01               157 	ld	a,#0x01
   0011 12                  158 	ld	(de),a
                            159 ; genPlus
                            160 ; genPlusIncr
   0012 11 03 00            161 	ld	de,#_Maze + 0 + 3
                            162 ; genAssign (pointer)
   0015 3E 01               163 	ld	a,#0x01
   0017 12                  164 	ld	(de),a
                            165 ; genPlus
                            166 ; genPlusIncr
   0018 11 04 00            167 	ld	de,#_Maze + 0 + 4
                            168 ; genAssign (pointer)
   001B 3E 01               169 	ld	a,#0x01
   001D 12                  170 	ld	(de),a
                            171 ; genPlus
                            172 ; genPlusIncr
   001E 11 05 00            173 	ld	de,#_Maze + 0 + 5
                            174 ; genAssign (pointer)
   0021 3E 01               175 	ld	a,#0x01
   0023 12                  176 	ld	(de),a
                            177 ; genPlus
                            178 ; genPlusIncr
   0024 11 06 00            179 	ld	de,#_Maze + 0 + 6
                            180 ; genAssign (pointer)
   0027 3E 01               181 	ld	a,#0x01
   0029 12                  182 	ld	(de),a
                            183 ; genPlus
                            184 ; genPlusIncr
   002A 11 07 00            185 	ld	de,#_Maze + 0 + 7
                            186 ; genAssign (pointer)
   002D 3E 01               187 	ld	a,#0x01
   002F 12                  188 	ld	(de),a
                            189 ; genPlus
                            190 ; genPlusIncr
   0030 11 08 00            191 	ld	de,#_Maze + 0 + 8
                            192 ; genAssign (pointer)
   0033 3E 01               193 	ld	a,#0x01
   0035 12                  194 	ld	(de),a
                            195 ; genPlus
                            196 ; genPlusIncr
   0036 11 09 00            197 	ld	de,#_Maze + 0 + 9
                            198 ; genAssign (pointer)
   0039 3E 01               199 	ld	a,#0x01
   003B 12                  200 	ld	(de),a
                            201 ; genPlus
                            202 ; genPlusIncr
   003C 11 0A 00            203 	ld	de,#_Maze + 0 + 10
                            204 ; genAssign (pointer)
   003F 3E 01               205 	ld	a,#0x01
   0041 12                  206 	ld	(de),a
                            207 ; genPlus
                            208 ; genPlusIncr
   0042 11 0B 00            209 	ld	de,#_Maze + 0 + 11
                            210 ; genAssign (pointer)
   0045 3E 01               211 	ld	a,#0x01
   0047 12                  212 	ld	(de),a
                            213 ; genPlus
                            214 ; genPlusIncr
   0048 11 0C 00            215 	ld	de,#_Maze + 0 + 12
                            216 ; genAssign (pointer)
   004B 3E 01               217 	ld	a,#0x01
   004D 12                  218 	ld	(de),a
                            219 ; genPlus
                            220 ; genPlusIncr
   004E 11 0D 00            221 	ld	de,#_Maze + 0 + 13
                            222 ; genAssign (pointer)
   0051 3E 01               223 	ld	a,#0x01
   0053 12                  224 	ld	(de),a
                            225 ; genPlus
                            226 ; genPlusIncr
   0054 11 0E 00            227 	ld	de,#_Maze + 0 + 14
                            228 ; genAssign (pointer)
   0057 3E 01               229 	ld	a,#0x01
   0059 12                  230 	ld	(de),a
                            231 ; genPlus
                            232 ; genPlusIncr
   005A 11 0F 00            233 	ld	de,#_Maze + 0 + 15
                            234 ; genAssign (pointer)
   005D 3E 01               235 	ld	a,#0x01
   005F 12                  236 	ld	(de),a
                            237 ; genPlus
                            238 ; genPlusIncr
   0060 11 10 00            239 	ld	de,#_Maze + 0 + 16
                            240 ; genAssign (pointer)
   0063 3E 01               241 	ld	a,#0x01
   0065 12                  242 	ld	(de),a
                            243 ; genPlus
                            244 ; genPlusIncr
   0066 11 11 00            245 	ld	de,#_Maze + 0 + 17
                            246 ; genAssign (pointer)
   0069 3E 01               247 	ld	a,#0x01
   006B 12                  248 	ld	(de),a
                            249 ; genPlus
                            250 ; genPlusIncr
   006C 11 12 00            251 	ld	de,#_Maze + 0 + 18
                            252 ; genAssign (pointer)
   006F 3E 01               253 	ld	a,#0x01
   0071 12                  254 	ld	(de),a
                            255 ; genPlus
                            256 ; genPlusIncr
   0072 11 13 00            257 	ld	de,#_Maze + 0 + 19
                            258 ; genAssign (pointer)
   0075 3E 01               259 	ld	a,#0x01
   0077 12                  260 	ld	(de),a
                            261 ; genPlus
                            262 ; genPlusIncr
   0078 11 14 00            263 	ld	de,#_Maze + 0 + 20
                            264 ; genAssign (pointer)
   007B 3E 01               265 	ld	a,#0x01
   007D 12                  266 	ld	(de),a
                            267 ; genPlus
                            268 ; genPlusIncr
   007E 11 15 00            269 	ld	de,#_Maze + 0 + 21
                            270 ; genAssign (pointer)
   0081 3E 00               271 	ld	a,#0x00
   0083 12                  272 	ld	(de),a
                            273 ; genPlus
                            274 ; genPlusIncr
   0084 11 16 00            275 	ld	de,#_Maze + 0 + 22
                            276 ; genAssign (pointer)
   0087 3E 00               277 	ld	a,#0x00
   0089 12                  278 	ld	(de),a
                            279 ; genPlus
                            280 ; genPlusIncr
   008A 11 17 00            281 	ld	de,#_Maze + 0 + 23
                            282 ; genAssign (pointer)
   008D 3E 00               283 	ld	a,#0x00
   008F 12                  284 	ld	(de),a
                            285 ; genPlus
                            286 ; genPlusIncr
   0090 11 18 00            287 	ld	de,#_Maze + 0 + 24
                            288 ; genAssign (pointer)
   0093 3E 00               289 	ld	a,#0x00
   0095 12                  290 	ld	(de),a
                            291 ; genPlus
                            292 ; genPlusIncr
   0096 11 19 00            293 	ld	de,#_Maze + 0 + 25
                            294 ; genAssign (pointer)
   0099 3E 00               295 	ld	a,#0x00
   009B 12                  296 	ld	(de),a
                            297 ; genPlus
                            298 ; genPlusIncr
   009C 11 1A 00            299 	ld	de,#_Maze + 0 + 26
                            300 ; genAssign (pointer)
   009F 3E 01               301 	ld	a,#0x01
   00A1 12                  302 	ld	(de),a
                            303 ; genPlus
                            304 ; genPlusIncr
   00A2 11 1B 00            305 	ld	de,#_Maze + 0 + 27
                            306 ; genAssign (pointer)
   00A5 3E 00               307 	ld	a,#0x00
   00A7 12                  308 	ld	(de),a
                            309 ; genPlus
                            310 ; genPlusIncr
   00A8 11 1C 00            311 	ld	de,#_Maze + 0 + 28
                            312 ; genAssign (pointer)
   00AB 3E 00               313 	ld	a,#0x00
   00AD 12                  314 	ld	(de),a
                            315 ; genPlus
                            316 ; genPlusIncr
   00AE 11 1D 00            317 	ld	de,#_Maze + 0 + 29
                            318 ; genAssign (pointer)
   00B1 3E 00               319 	ld	a,#0x00
   00B3 12                  320 	ld	(de),a
                            321 ; genPlus
                            322 ; genPlusIncr
   00B4 11 1E 00            323 	ld	de,#_Maze + 0 + 30
                            324 ; genAssign (pointer)
   00B7 3E 00               325 	ld	a,#0x00
   00B9 12                  326 	ld	(de),a
                            327 ; genPlus
                            328 ; genPlusIncr
   00BA 11 1F 00            329 	ld	de,#_Maze + 0 + 31
                            330 ; genAssign (pointer)
   00BD 3E 00               331 	ld	a,#0x00
   00BF 12                  332 	ld	(de),a
                            333 ; genPlus
                            334 ; genPlusIncr
   00C0 11 20 00            335 	ld	de,#_Maze + 0 + 32
                            336 ; genAssign (pointer)
   00C3 3E 00               337 	ld	a,#0x00
   00C5 12                  338 	ld	(de),a
                            339 ; genPlus
                            340 ; genPlusIncr
   00C6 11 21 00            341 	ld	de,#_Maze + 0 + 33
                            342 ; genAssign (pointer)
   00C9 3E 00               343 	ld	a,#0x00
   00CB 12                  344 	ld	(de),a
                            345 ; genPlus
                            346 ; genPlusIncr
   00CC 11 22 00            347 	ld	de,#_Maze + 0 + 34
                            348 ; genAssign (pointer)
   00CF 3E 00               349 	ld	a,#0x00
   00D1 12                  350 	ld	(de),a
                            351 ; genPlus
                            352 ; genPlusIncr
   00D2 11 23 00            353 	ld	de,#_Maze + 0 + 35
                            354 ; genAssign (pointer)
   00D5 3E 00               355 	ld	a,#0x00
   00D7 12                  356 	ld	(de),a
                            357 ; genPlus
                            358 ; genPlusIncr
   00D8 11 24 00            359 	ld	de,#_Maze + 0 + 36
                            360 ; genAssign (pointer)
   00DB 3E 00               361 	ld	a,#0x00
   00DD 12                  362 	ld	(de),a
                            363 ; genPlus
                            364 ; genPlusIncr
   00DE 11 25 00            365 	ld	de,#_Maze + 0 + 37
                            366 ; genAssign (pointer)
   00E1 3E 00               367 	ld	a,#0x00
   00E3 12                  368 	ld	(de),a
                            369 ; genPlus
                            370 ; genPlusIncr
   00E4 11 26 00            371 	ld	de,#_Maze + 0 + 38
                            372 ; genAssign (pointer)
   00E7 3E 00               373 	ld	a,#0x00
   00E9 12                  374 	ld	(de),a
                            375 ; genPlus
                            376 ; genPlusIncr
   00EA 11 27 00            377 	ld	de,#_Maze + 0 + 39
                            378 ; genAssign (pointer)
   00ED 3E 01               379 	ld	a,#0x01
   00EF 12                  380 	ld	(de),a
                            381 ; genPlus
                            382 ; genPlusIncr
   00F0 11 28 00            383 	ld	de,#_Maze + 0 + 40
                            384 ; genAssign (pointer)
   00F3 3E 01               385 	ld	a,#0x01
   00F5 12                  386 	ld	(de),a
                            387 ; genPlus
                            388 ; genPlusIncr
   00F6 11 29 00            389 	ld	de,#_Maze + 0 + 41
                            390 ; genAssign (pointer)
   00F9 3E 00               391 	ld	a,#0x00
   00FB 12                  392 	ld	(de),a
                            393 ; genPlus
                            394 ; genPlusIncr
   00FC 11 2A 00            395 	ld	de,#_Maze + 0 + 42
                            396 ; genAssign (pointer)
   00FF 3E 01               397 	ld	a,#0x01
   0101 12                  398 	ld	(de),a
                            399 ; genPlus
                            400 ; genPlusIncr
   0102 11 2B 00            401 	ld	de,#_Maze + 0 + 43
                            402 ; genAssign (pointer)
   0105 3E 01               403 	ld	a,#0x01
   0107 12                  404 	ld	(de),a
                            405 ; genPlus
                            406 ; genPlusIncr
   0108 11 2C 00            407 	ld	de,#_Maze + 0 + 44
                            408 ; genAssign (pointer)
   010B 3E 01               409 	ld	a,#0x01
   010D 12                  410 	ld	(de),a
                            411 ; genPlus
                            412 ; genPlusIncr
   010E 11 2D 00            413 	ld	de,#_Maze + 0 + 45
                            414 ; genAssign (pointer)
   0111 3E 00               415 	ld	a,#0x00
   0113 12                  416 	ld	(de),a
                            417 ; genPlus
                            418 ; genPlusIncr
   0114 11 2E 00            419 	ld	de,#_Maze + 0 + 46
                            420 ; genAssign (pointer)
   0117 3E 01               421 	ld	a,#0x01
   0119 12                  422 	ld	(de),a
                            423 ; genPlus
                            424 ; genPlusIncr
   011A 11 2F 00            425 	ld	de,#_Maze + 0 + 47
                            426 ; genAssign (pointer)
   011D 3E 00               427 	ld	a,#0x00
   011F 12                  428 	ld	(de),a
                            429 ; genPlus
                            430 ; genPlusIncr
   0120 11 30 00            431 	ld	de,#_Maze + 0 + 48
                            432 ; genAssign (pointer)
   0123 3E 01               433 	ld	a,#0x01
   0125 12                  434 	ld	(de),a
                            435 ; genPlus
                            436 ; genPlusIncr
   0126 11 31 00            437 	ld	de,#_Maze + 0 + 49
                            438 ; genAssign (pointer)
   0129 3E 01               439 	ld	a,#0x01
   012B 12                  440 	ld	(de),a
                            441 ; genPlus
                            442 ; genPlusIncr
   012C 11 32 00            443 	ld	de,#_Maze + 0 + 50
                            444 ; genAssign (pointer)
   012F 3E 01               445 	ld	a,#0x01
   0131 12                  446 	ld	(de),a
                            447 ; genPlus
                            448 ; genPlusIncr
   0132 11 33 00            449 	ld	de,#_Maze + 0 + 51
                            450 ; genAssign (pointer)
   0135 3E 01               451 	ld	a,#0x01
   0137 12                  452 	ld	(de),a
                            453 ; genPlus
                            454 ; genPlusIncr
   0138 11 34 00            455 	ld	de,#_Maze + 0 + 52
                            456 ; genAssign (pointer)
   013B 3E 01               457 	ld	a,#0x01
   013D 12                  458 	ld	(de),a
                            459 ; genPlus
                            460 ; genPlusIncr
   013E 11 35 00            461 	ld	de,#_Maze + 0 + 53
                            462 ; genAssign (pointer)
   0141 3E 01               463 	ld	a,#0x01
   0143 12                  464 	ld	(de),a
                            465 ; genPlus
                            466 ; genPlusIncr
   0144 11 36 00            467 	ld	de,#_Maze + 0 + 54
                            468 ; genAssign (pointer)
   0147 3E 01               469 	ld	a,#0x01
   0149 12                  470 	ld	(de),a
                            471 ; genPlus
                            472 ; genPlusIncr
   014A 11 37 00            473 	ld	de,#_Maze + 0 + 55
                            474 ; genAssign (pointer)
   014D 3E 01               475 	ld	a,#0x01
   014F 12                  476 	ld	(de),a
                            477 ; genPlus
                            478 ; genPlusIncr
   0150 11 38 00            479 	ld	de,#_Maze + 0 + 56
                            480 ; genAssign (pointer)
   0153 3E 01               481 	ld	a,#0x01
   0155 12                  482 	ld	(de),a
                            483 ; genPlus
                            484 ; genPlusIncr
   0156 11 39 00            485 	ld	de,#_Maze + 0 + 57
                            486 ; genAssign (pointer)
   0159 3E 01               487 	ld	a,#0x01
   015B 12                  488 	ld	(de),a
                            489 ; genPlus
                            490 ; genPlusIncr
   015C 11 3A 00            491 	ld	de,#_Maze + 0 + 58
                            492 ; genAssign (pointer)
   015F 3E 00               493 	ld	a,#0x00
   0161 12                  494 	ld	(de),a
                            495 ; genPlus
                            496 ; genPlusIncr
   0162 11 3B 00            497 	ld	de,#_Maze + 0 + 59
                            498 ; genAssign (pointer)
   0165 3E 01               499 	ld	a,#0x01
   0167 12                  500 	ld	(de),a
                            501 ; genPlus
                            502 ; genPlusIncr
   0168 11 3C 00            503 	ld	de,#_Maze + 0 + 60
                            504 ; genAssign (pointer)
   016B 3E 01               505 	ld	a,#0x01
   016D 12                  506 	ld	(de),a
                            507 ; genPlus
                            508 ; genPlusIncr
   016E 11 3D 00            509 	ld	de,#_Maze + 0 + 61
                            510 ; genAssign (pointer)
   0171 3E 00               511 	ld	a,#0x00
   0173 12                  512 	ld	(de),a
                            513 ; genPlus
                            514 ; genPlusIncr
   0174 11 3E 00            515 	ld	de,#_Maze + 0 + 62
                            516 ; genAssign (pointer)
   0177 3E 01               517 	ld	a,#0x01
   0179 12                  518 	ld	(de),a
                            519 ; genPlus
                            520 ; genPlusIncr
   017A 11 3F 00            521 	ld	de,#_Maze + 0 + 63
                            522 ; genAssign (pointer)
   017D 3E 02               523 	ld	a,#0x02
   017F 12                  524 	ld	(de),a
                            525 ; genPlus
                            526 ; genPlusIncr
   0180 11 40 00            527 	ld	de,#_Maze + 0 + 64
                            528 ; genAssign (pointer)
   0183 3E 01               529 	ld	a,#0x01
   0185 12                  530 	ld	(de),a
                            531 ; genPlus
                            532 ; genPlusIncr
   0186 11 41 00            533 	ld	de,#_Maze + 0 + 65
                            534 ; genAssign (pointer)
   0189 3E 00               535 	ld	a,#0x00
   018B 12                  536 	ld	(de),a
                            537 ; genPlus
                            538 ; genPlusIncr
   018C 11 42 00            539 	ld	de,#_Maze + 0 + 66
                            540 ; genAssign (pointer)
   018F 3E 01               541 	ld	a,#0x01
   0191 12                  542 	ld	(de),a
                            543 ; genPlus
                            544 ; genPlusIncr
   0192 11 43 00            545 	ld	de,#_Maze + 0 + 67
                            546 ; genAssign (pointer)
   0195 3E 00               547 	ld	a,#0x00
   0197 12                  548 	ld	(de),a
                            549 ; genPlus
                            550 ; genPlusIncr
   0198 11 44 00            551 	ld	de,#_Maze + 0 + 68
                            552 ; genAssign (pointer)
   019B 3E 00               553 	ld	a,#0x00
   019D 12                  554 	ld	(de),a
                            555 ; genPlus
                            556 ; genPlusIncr
   019E 11 45 00            557 	ld	de,#_Maze + 0 + 69
                            558 ; genAssign (pointer)
   01A1 3E 00               559 	ld	a,#0x00
   01A3 12                  560 	ld	(de),a
                            561 ; genPlus
                            562 ; genPlusIncr
   01A4 11 46 00            563 	ld	de,#_Maze + 0 + 70
                            564 ; genAssign (pointer)
   01A7 3E 00               565 	ld	a,#0x00
   01A9 12                  566 	ld	(de),a
                            567 ; genPlus
                            568 ; genPlusIncr
   01AA 11 47 00            569 	ld	de,#_Maze + 0 + 71
                            570 ; genAssign (pointer)
   01AD 3E 00               571 	ld	a,#0x00
   01AF 12                  572 	ld	(de),a
                            573 ; genPlus
                            574 ; genPlusIncr
   01B0 11 48 00            575 	ld	de,#_Maze + 0 + 72
                            576 ; genAssign (pointer)
   01B3 3E 00               577 	ld	a,#0x00
   01B5 12                  578 	ld	(de),a
                            579 ; genPlus
                            580 ; genPlusIncr
   01B6 11 49 00            581 	ld	de,#_Maze + 0 + 73
                            582 ; genAssign (pointer)
   01B9 3E 00               583 	ld	a,#0x00
   01BB 12                  584 	ld	(de),a
                            585 ; genPlus
                            586 ; genPlusIncr
   01BC 11 4A 00            587 	ld	de,#_Maze + 0 + 74
                            588 ; genAssign (pointer)
   01BF 3E 00               589 	ld	a,#0x00
   01C1 12                  590 	ld	(de),a
                            591 ; genPlus
                            592 ; genPlusIncr
   01C2 11 4B 00            593 	ld	de,#_Maze + 0 + 75
                            594 ; genAssign (pointer)
   01C5 3E 00               595 	ld	a,#0x00
   01C7 12                  596 	ld	(de),a
                            597 ; genPlus
                            598 ; genPlusIncr
   01C8 11 4C 00            599 	ld	de,#_Maze + 0 + 76
                            600 ; genAssign (pointer)
   01CB 3E 00               601 	ld	a,#0x00
   01CD 12                  602 	ld	(de),a
                            603 ; genPlus
                            604 ; genPlusIncr
   01CE 11 4D 00            605 	ld	de,#_Maze + 0 + 77
                            606 ; genAssign (pointer)
   01D1 3E 01               607 	ld	a,#0x01
   01D3 12                  608 	ld	(de),a
                            609 ; genPlus
                            610 ; genPlusIncr
   01D4 11 4E 00            611 	ld	de,#_Maze + 0 + 78
                            612 ; genAssign (pointer)
   01D7 3E 00               613 	ld	a,#0x00
   01D9 12                  614 	ld	(de),a
                            615 ; genPlus
                            616 ; genPlusIncr
   01DA 11 4F 00            617 	ld	de,#_Maze + 0 + 79
                            618 ; genAssign (pointer)
   01DD 3E 01               619 	ld	a,#0x01
   01DF 12                  620 	ld	(de),a
                            621 ; genPlus
                            622 ; genPlusIncr
   01E0 11 50 00            623 	ld	de,#_Maze + 0 + 80
                            624 ; genAssign (pointer)
   01E3 3E 01               625 	ld	a,#0x01
   01E5 12                  626 	ld	(de),a
                            627 ; genPlus
                            628 ; genPlusIncr
   01E6 11 51 00            629 	ld	de,#_Maze + 0 + 81
                            630 ; genAssign (pointer)
   01E9 3E 00               631 	ld	a,#0x00
   01EB 12                  632 	ld	(de),a
                            633 ; genPlus
                            634 ; genPlusIncr
   01EC 11 52 00            635 	ld	de,#_Maze + 0 + 82
                            636 ; genAssign (pointer)
   01EF 3E 01               637 	ld	a,#0x01
   01F1 12                  638 	ld	(de),a
                            639 ; genPlus
                            640 ; genPlusIncr
   01F2 11 53 00            641 	ld	de,#_Maze + 0 + 83
                            642 ; genAssign (pointer)
   01F5 3E 00               643 	ld	a,#0x00
   01F7 12                  644 	ld	(de),a
                            645 ; genPlus
                            646 ; genPlusIncr
   01F8 11 54 00            647 	ld	de,#_Maze + 0 + 84
                            648 ; genAssign (pointer)
   01FB 3E 01               649 	ld	a,#0x01
   01FD 12                  650 	ld	(de),a
                            651 ; genPlus
                            652 ; genPlusIncr
   01FE 11 55 00            653 	ld	de,#_Maze + 0 + 85
                            654 ; genAssign (pointer)
   0201 3E 00               655 	ld	a,#0x00
   0203 12                  656 	ld	(de),a
                            657 ; genPlus
                            658 ; genPlusIncr
   0204 11 56 00            659 	ld	de,#_Maze + 0 + 86
                            660 ; genAssign (pointer)
   0207 3E 01               661 	ld	a,#0x01
   0209 12                  662 	ld	(de),a
                            663 ; genPlus
                            664 ; genPlusIncr
   020A 11 57 00            665 	ld	de,#_Maze + 0 + 87
                            666 ; genAssign (pointer)
   020D 3E 01               667 	ld	a,#0x01
   020F 12                  668 	ld	(de),a
                            669 ; genPlus
                            670 ; genPlusIncr
   0210 11 58 00            671 	ld	de,#_Maze + 0 + 88
                            672 ; genAssign (pointer)
   0213 3E 01               673 	ld	a,#0x01
   0215 12                  674 	ld	(de),a
                            675 ; genPlus
                            676 ; genPlusIncr
   0216 11 59 00            677 	ld	de,#_Maze + 0 + 89
                            678 ; genAssign (pointer)
   0219 3E 01               679 	ld	a,#0x01
   021B 12                  680 	ld	(de),a
                            681 ; genPlus
                            682 ; genPlusIncr
   021C 11 5A 00            683 	ld	de,#_Maze + 0 + 90
                            684 ; genAssign (pointer)
   021F 3E 01               685 	ld	a,#0x01
   0221 12                  686 	ld	(de),a
                            687 ; genPlus
                            688 ; genPlusIncr
   0222 11 5B 00            689 	ld	de,#_Maze + 0 + 91
                            690 ; genAssign (pointer)
   0225 3E 01               691 	ld	a,#0x01
   0227 12                  692 	ld	(de),a
                            693 ; genPlus
                            694 ; genPlusIncr
   0228 11 5C 00            695 	ld	de,#_Maze + 0 + 92
                            696 ; genAssign (pointer)
   022B 3E 01               697 	ld	a,#0x01
   022D 12                  698 	ld	(de),a
                            699 ; genPlus
                            700 ; genPlusIncr
   022E 11 5D 00            701 	ld	de,#_Maze + 0 + 93
                            702 ; genAssign (pointer)
   0231 3E 01               703 	ld	a,#0x01
   0233 12                  704 	ld	(de),a
                            705 ; genPlus
                            706 ; genPlusIncr
   0234 11 5E 00            707 	ld	de,#_Maze + 0 + 94
                            708 ; genAssign (pointer)
   0237 3E 01               709 	ld	a,#0x01
   0239 12                  710 	ld	(de),a
                            711 ; genPlus
                            712 ; genPlusIncr
   023A 11 5F 00            713 	ld	de,#_Maze + 0 + 95
                            714 ; genAssign (pointer)
   023D 3E 01               715 	ld	a,#0x01
   023F 12                  716 	ld	(de),a
                            717 ; genPlus
                            718 ; genPlusIncr
   0240 11 60 00            719 	ld	de,#_Maze + 0 + 96
                            720 ; genAssign (pointer)
   0243 3E 00               721 	ld	a,#0x00
   0245 12                  722 	ld	(de),a
                            723 ; genPlus
                            724 ; genPlusIncr
   0246 11 61 00            725 	ld	de,#_Maze + 0 + 97
                            726 ; genAssign (pointer)
   0249 3E 01               727 	ld	a,#0x01
   024B 12                  728 	ld	(de),a
                            729 ; genPlus
                            730 ; genPlusIncr
   024C 11 62 00            731 	ld	de,#_Maze + 0 + 98
                            732 ; genAssign (pointer)
   024F 3E 00               733 	ld	a,#0x00
   0251 12                  734 	ld	(de),a
                            735 ; genPlus
                            736 ; genPlusIncr
   0252 11 63 00            737 	ld	de,#_Maze + 0 + 99
                            738 ; genAssign (pointer)
   0255 3E 01               739 	ld	a,#0x01
   0257 12                  740 	ld	(de),a
                            741 ; genPlus
                            742 ; genPlusIncr
   0258 11 64 00            743 	ld	de,#_Maze + 0 + 100
                            744 ; genAssign (pointer)
   025B 3E 01               745 	ld	a,#0x01
   025D 12                  746 	ld	(de),a
                            747 ; genPlus
                            748 ; genPlusIncr
   025E 11 65 00            749 	ld	de,#_Maze + 0 + 101
                            750 ; genAssign (pointer)
   0261 3E 00               751 	ld	a,#0x00
   0263 12                  752 	ld	(de),a
                            753 ; genPlus
                            754 ; genPlusIncr
   0264 11 66 00            755 	ld	de,#_Maze + 0 + 102
                            756 ; genAssign (pointer)
   0267 3E 00               757 	ld	a,#0x00
   0269 12                  758 	ld	(de),a
                            759 ; genPlus
                            760 ; genPlusIncr
   026A 11 67 00            761 	ld	de,#_Maze + 0 + 103
                            762 ; genAssign (pointer)
   026D 3E 00               763 	ld	a,#0x00
   026F 12                  764 	ld	(de),a
                            765 ; genPlus
                            766 ; genPlusIncr
   0270 11 68 00            767 	ld	de,#_Maze + 0 + 104
                            768 ; genAssign (pointer)
   0273 3E 01               769 	ld	a,#0x01
   0275 12                  770 	ld	(de),a
                            771 ; genPlus
                            772 ; genPlusIncr
   0276 11 69 00            773 	ld	de,#_Maze + 0 + 105
                            774 ; genAssign (pointer)
   0279 3E 00               775 	ld	a,#0x00
   027B 12                  776 	ld	(de),a
                            777 ; genPlus
                            778 ; genPlusIncr
   027C 11 6A 00            779 	ld	de,#_Maze + 0 + 106
                            780 ; genAssign (pointer)
   027F 3E 01               781 	ld	a,#0x01
   0281 12                  782 	ld	(de),a
                            783 ; genPlus
                            784 ; genPlusIncr
   0282 11 6B 00            785 	ld	de,#_Maze + 0 + 107
                            786 ; genAssign (pointer)
   0285 3E 00               787 	ld	a,#0x00
   0287 12                  788 	ld	(de),a
                            789 ; genPlus
                            790 ; genPlusIncr
   0288 11 6C 00            791 	ld	de,#_Maze + 0 + 108
                            792 ; genAssign (pointer)
   028B 3E 00               793 	ld	a,#0x00
   028D 12                  794 	ld	(de),a
                            795 ; genPlus
                            796 ; genPlusIncr
   028E 11 6D 00            797 	ld	de,#_Maze + 0 + 109
                            798 ; genAssign (pointer)
   0291 3E 00               799 	ld	a,#0x00
   0293 12                  800 	ld	(de),a
                            801 ; genPlus
                            802 ; genPlusIncr
   0294 11 6E 00            803 	ld	de,#_Maze + 0 + 110
                            804 ; genAssign (pointer)
   0297 3E 00               805 	ld	a,#0x00
   0299 12                  806 	ld	(de),a
                            807 ; genPlus
                            808 ; genPlusIncr
   029A 11 6F 00            809 	ld	de,#_Maze + 0 + 111
                            810 ; genAssign (pointer)
   029D 3E 00               811 	ld	a,#0x00
   029F 12                  812 	ld	(de),a
                            813 ; genPlus
                            814 ; genPlusIncr
   02A0 11 70 00            815 	ld	de,#_Maze + 0 + 112
                            816 ; genAssign (pointer)
   02A3 3E 00               817 	ld	a,#0x00
   02A5 12                  818 	ld	(de),a
                            819 ; genPlus
                            820 ; genPlusIncr
   02A6 11 71 00            821 	ld	de,#_Maze + 0 + 113
                            822 ; genAssign (pointer)
   02A9 3E 00               823 	ld	a,#0x00
   02AB 12                  824 	ld	(de),a
                            825 ; genPlus
                            826 ; genPlusIncr
   02AC 11 72 00            827 	ld	de,#_Maze + 0 + 114
                            828 ; genAssign (pointer)
   02AF 3E 00               829 	ld	a,#0x00
   02B1 12                  830 	ld	(de),a
                            831 ; genPlus
                            832 ; genPlusIncr
   02B2 11 73 00            833 	ld	de,#_Maze + 0 + 115
                            834 ; genAssign (pointer)
   02B5 3E 01               835 	ld	a,#0x01
   02B7 12                  836 	ld	(de),a
                            837 ; genPlus
                            838 ; genPlusIncr
   02B8 11 74 00            839 	ld	de,#_Maze + 0 + 116
                            840 ; genAssign (pointer)
   02BB 3E 00               841 	ld	a,#0x00
   02BD 12                  842 	ld	(de),a
                            843 ; genPlus
                            844 ; genPlusIncr
   02BE 11 75 00            845 	ld	de,#_Maze + 0 + 117
                            846 ; genAssign (pointer)
   02C1 3E 01               847 	ld	a,#0x01
   02C3 12                  848 	ld	(de),a
                            849 ; genPlus
                            850 ; genPlusIncr
   02C4 11 76 00            851 	ld	de,#_Maze + 0 + 118
                            852 ; genAssign (pointer)
   02C7 3E 00               853 	ld	a,#0x00
   02C9 12                  854 	ld	(de),a
                            855 ; genPlus
                            856 ; genPlusIncr
   02CA 11 77 00            857 	ld	de,#_Maze + 0 + 119
                            858 ; genAssign (pointer)
   02CD 3E 01               859 	ld	a,#0x01
   02CF 12                  860 	ld	(de),a
                            861 ; genPlus
                            862 ; genPlusIncr
   02D0 11 78 00            863 	ld	de,#_Maze + 0 + 120
                            864 ; genAssign (pointer)
   02D3 3E 01               865 	ld	a,#0x01
   02D5 12                  866 	ld	(de),a
                            867 ; genPlus
                            868 ; genPlusIncr
   02D6 11 79 00            869 	ld	de,#_Maze + 0 + 121
                            870 ; genAssign (pointer)
   02D9 3E 01               871 	ld	a,#0x01
   02DB 12                  872 	ld	(de),a
                            873 ; genPlus
                            874 ; genPlusIncr
   02DC 11 7A 00            875 	ld	de,#_Maze + 0 + 122
                            876 ; genAssign (pointer)
   02DF 3E 01               877 	ld	a,#0x01
   02E1 12                  878 	ld	(de),a
                            879 ; genPlus
                            880 ; genPlusIncr
   02E2 11 7B 00            881 	ld	de,#_Maze + 0 + 123
                            882 ; genAssign (pointer)
   02E5 3E 01               883 	ld	a,#0x01
   02E7 12                  884 	ld	(de),a
                            885 ; genPlus
                            886 ; genPlusIncr
   02E8 11 7C 00            887 	ld	de,#_Maze + 0 + 124
                            888 ; genAssign (pointer)
   02EB 3E 01               889 	ld	a,#0x01
   02ED 12                  890 	ld	(de),a
                            891 ; genPlus
                            892 ; genPlusIncr
   02EE 11 7D 00            893 	ld	de,#_Maze + 0 + 125
                            894 ; genAssign (pointer)
   02F1 3E 00               895 	ld	a,#0x00
   02F3 12                  896 	ld	(de),a
                            897 ; genPlus
                            898 ; genPlusIncr
   02F4 11 7E 00            899 	ld	de,#_Maze + 0 + 126
                            900 ; genAssign (pointer)
   02F7 3E 01               901 	ld	a,#0x01
   02F9 12                  902 	ld	(de),a
                            903 ; genPlus
                            904 ; genPlusIncr
   02FA 11 7F 00            905 	ld	de,#_Maze + 0 + 127
                            906 ; genAssign (pointer)
   02FD 3E 00               907 	ld	a,#0x00
   02FF 12                  908 	ld	(de),a
                            909 ; genPlus
                            910 ; genPlusIncr
   0300 11 80 00            911 	ld	de,#_Maze + 0 + 128
                            912 ; genAssign (pointer)
   0303 3E 01               913 	ld	a,#0x01
   0305 12                  914 	ld	(de),a
                            915 ; genPlus
                            916 ; genPlusIncr
   0306 11 81 00            917 	ld	de,#_Maze + 0 + 129
                            918 ; genAssign (pointer)
   0309 3E 01               919 	ld	a,#0x01
   030B 12                  920 	ld	(de),a
                            921 ; genPlus
                            922 ; genPlusIncr
   030C 11 82 00            923 	ld	de,#_Maze + 0 + 130
                            924 ; genAssign (pointer)
   030F 3E 01               925 	ld	a,#0x01
   0311 12                  926 	ld	(de),a
                            927 ; genPlus
                            928 ; genPlusIncr
   0312 11 83 00            929 	ld	de,#_Maze + 0 + 131
                            930 ; genAssign (pointer)
   0315 3E 01               931 	ld	a,#0x01
   0317 12                  932 	ld	(de),a
                            933 ; genPlus
                            934 ; genPlusIncr
   0318 11 84 00            935 	ld	de,#_Maze + 0 + 132
                            936 ; genAssign (pointer)
   031B 3E 01               937 	ld	a,#0x01
   031D 12                  938 	ld	(de),a
                            939 ; genPlus
                            940 ; genPlusIncr
   031E 11 85 00            941 	ld	de,#_Maze + 0 + 133
                            942 ; genAssign (pointer)
   0321 3E 01               943 	ld	a,#0x01
   0323 12                  944 	ld	(de),a
                            945 ; genPlus
                            946 ; genPlusIncr
   0324 11 86 00            947 	ld	de,#_Maze + 0 + 134
                            948 ; genAssign (pointer)
   0327 3E 01               949 	ld	a,#0x01
   0329 12                  950 	ld	(de),a
                            951 ; genPlus
                            952 ; genPlusIncr
   032A 11 87 00            953 	ld	de,#_Maze + 0 + 135
                            954 ; genAssign (pointer)
   032D 3E 01               955 	ld	a,#0x01
   032F 12                  956 	ld	(de),a
                            957 ; genPlus
                            958 ; genPlusIncr
   0330 11 88 00            959 	ld	de,#_Maze + 0 + 136
                            960 ; genAssign (pointer)
   0333 3E 00               961 	ld	a,#0x00
   0335 12                  962 	ld	(de),a
                            963 ; genPlus
                            964 ; genPlusIncr
   0336 11 89 00            965 	ld	de,#_Maze + 0 + 137
                            966 ; genAssign (pointer)
   0339 3E 01               967 	ld	a,#0x01
   033B 12                  968 	ld	(de),a
                            969 ; genPlus
                            970 ; genPlusIncr
   033C 11 8A 00            971 	ld	de,#_Maze + 0 + 138
                            972 ; genAssign (pointer)
   033F 3E 00               973 	ld	a,#0x00
   0341 12                  974 	ld	(de),a
                            975 ; genPlus
                            976 ; genPlusIncr
   0342 11 8B 00            977 	ld	de,#_Maze + 0 + 139
                            978 ; genAssign (pointer)
   0345 3E 01               979 	ld	a,#0x01
   0347 12                  980 	ld	(de),a
                            981 ; genPlus
                            982 ; genPlusIncr
   0348 11 8C 00            983 	ld	de,#_Maze + 0 + 140
                            984 ; genAssign (pointer)
   034B 3E 01               985 	ld	a,#0x01
   034D 12                  986 	ld	(de),a
                            987 ; genPlus
                            988 ; genPlusIncr
   034E 11 8D 00            989 	ld	de,#_Maze + 0 + 141
                            990 ; genAssign (pointer)
   0351 3E 00               991 	ld	a,#0x00
   0353 12                  992 	ld	(de),a
                            993 ; genPlus
                            994 ; genPlusIncr
   0354 11 8E 00            995 	ld	de,#_Maze + 0 + 142
                            996 ; genAssign (pointer)
   0357 3E 00               997 	ld	a,#0x00
   0359 12                  998 	ld	(de),a
                            999 ; genPlus
                           1000 ; genPlusIncr
   035A 11 8F 00           1001 	ld	de,#_Maze + 0 + 143
                           1002 ; genAssign (pointer)
   035D 3E 00              1003 	ld	a,#0x00
   035F 12                 1004 	ld	(de),a
                           1005 ; genPlus
                           1006 ; genPlusIncr
   0360 11 90 00           1007 	ld	de,#_Maze + 0 + 144
                           1008 ; genAssign (pointer)
   0363 3E 00              1009 	ld	a,#0x00
   0365 12                 1010 	ld	(de),a
                           1011 ; genPlus
                           1012 ; genPlusIncr
   0366 11 91 00           1013 	ld	de,#_Maze + 0 + 145
                           1014 ; genAssign (pointer)
   0369 3E 00              1015 	ld	a,#0x00
   036B 12                 1016 	ld	(de),a
                           1017 ; genPlus
                           1018 ; genPlusIncr
   036C 11 92 00           1019 	ld	de,#_Maze + 0 + 146
                           1020 ; genAssign (pointer)
   036F 3E 01              1021 	ld	a,#0x01
   0371 12                 1022 	ld	(de),a
                           1023 ; genPlus
                           1024 ; genPlusIncr
   0372 11 93 00           1025 	ld	de,#_Maze + 0 + 147
                           1026 ; genAssign (pointer)
   0375 3E 00              1027 	ld	a,#0x00
   0377 12                 1028 	ld	(de),a
                           1029 ; genPlus
                           1030 ; genPlusIncr
   0378 11 94 00           1031 	ld	de,#_Maze + 0 + 148
                           1032 ; genAssign (pointer)
   037B 3E 01              1033 	ld	a,#0x01
   037D 12                 1034 	ld	(de),a
                           1035 ; genPlus
                           1036 ; genPlusIncr
   037E 11 95 00           1037 	ld	de,#_Maze + 0 + 149
                           1038 ; genAssign (pointer)
   0381 3E 00              1039 	ld	a,#0x00
   0383 12                 1040 	ld	(de),a
                           1041 ; genPlus
                           1042 ; genPlusIncr
   0384 11 96 00           1043 	ld	de,#_Maze + 0 + 150
                           1044 ; genAssign (pointer)
   0387 3E 00              1045 	ld	a,#0x00
   0389 12                 1046 	ld	(de),a
                           1047 ; genPlus
                           1048 ; genPlusIncr
   038A 11 97 00           1049 	ld	de,#_Maze + 0 + 151
                           1050 ; genAssign (pointer)
   038D 3E 00              1051 	ld	a,#0x00
   038F 12                 1052 	ld	(de),a
                           1053 ; genPlus
                           1054 ; genPlusIncr
   0390 11 98 00           1055 	ld	de,#_Maze + 0 + 152
                           1056 ; genAssign (pointer)
   0393 3E 00              1057 	ld	a,#0x00
   0395 12                 1058 	ld	(de),a
                           1059 ; genPlus
                           1060 ; genPlusIncr
   0396 11 99 00           1061 	ld	de,#_Maze + 0 + 153
                           1062 ; genAssign (pointer)
   0399 3E 00              1063 	ld	a,#0x00
   039B 12                 1064 	ld	(de),a
                           1065 ; genPlus
                           1066 ; genPlusIncr
   039C 11 9A 00           1067 	ld	de,#_Maze + 0 + 154
                           1068 ; genAssign (pointer)
   039F 3E 00              1069 	ld	a,#0x00
   03A1 12                 1070 	ld	(de),a
                           1071 ; genPlus
                           1072 ; genPlusIncr
   03A2 11 9B 00           1073 	ld	de,#_Maze + 0 + 155
                           1074 ; genAssign (pointer)
   03A5 3E 00              1075 	ld	a,#0x00
   03A7 12                 1076 	ld	(de),a
                           1077 ; genPlus
                           1078 ; genPlusIncr
   03A8 11 9C 00           1079 	ld	de,#_Maze + 0 + 156
                           1080 ; genAssign (pointer)
   03AB 3E 00              1081 	ld	a,#0x00
   03AD 12                 1082 	ld	(de),a
                           1083 ; genPlus
                           1084 ; genPlusIncr
   03AE 11 9D 00           1085 	ld	de,#_Maze + 0 + 157
                           1086 ; genAssign (pointer)
   03B1 3E 01              1087 	ld	a,#0x01
   03B3 12                 1088 	ld	(de),a
                           1089 ; genPlus
                           1090 ; genPlusIncr
   03B4 11 9E 00           1091 	ld	de,#_Maze + 0 + 158
                           1092 ; genAssign (pointer)
   03B7 3E 00              1093 	ld	a,#0x00
   03B9 12                 1094 	ld	(de),a
                           1095 ; genPlus
                           1096 ; genPlusIncr
   03BA 11 9F 00           1097 	ld	de,#_Maze + 0 + 159
                           1098 ; genAssign (pointer)
   03BD 3E 01              1099 	ld	a,#0x01
   03BF 12                 1100 	ld	(de),a
                           1101 ; genPlus
                           1102 ; genPlusIncr
   03C0 11 A0 00           1103 	ld	de,#_Maze + 0 + 160
                           1104 ; genAssign (pointer)
   03C3 3E 01              1105 	ld	a,#0x01
   03C5 12                 1106 	ld	(de),a
                           1107 ; genPlus
                           1108 ; genPlusIncr
   03C6 11 A1 00           1109 	ld	de,#_Maze + 0 + 161
                           1110 ; genAssign (pointer)
   03C9 3E 00              1111 	ld	a,#0x00
   03CB 12                 1112 	ld	(de),a
                           1113 ; genPlus
                           1114 ; genPlusIncr
   03CC 11 A2 00           1115 	ld	de,#_Maze + 0 + 162
                           1116 ; genAssign (pointer)
   03CF 3E 01              1117 	ld	a,#0x01
   03D1 12                 1118 	ld	(de),a
                           1119 ; genPlus
                           1120 ; genPlusIncr
   03D2 11 A3 00           1121 	ld	de,#_Maze + 0 + 163
                           1122 ; genAssign (pointer)
   03D5 3E 01              1123 	ld	a,#0x01
   03D7 12                 1124 	ld	(de),a
                           1125 ; genPlus
                           1126 ; genPlusIncr
   03D8 11 A4 00           1127 	ld	de,#_Maze + 0 + 164
                           1128 ; genAssign (pointer)
   03DB 3E 01              1129 	ld	a,#0x01
   03DD 12                 1130 	ld	(de),a
                           1131 ; genPlus
                           1132 ; genPlusIncr
   03DE 11 A5 00           1133 	ld	de,#_Maze + 0 + 165
                           1134 ; genAssign (pointer)
   03E1 3E 00              1135 	ld	a,#0x00
   03E3 12                 1136 	ld	(de),a
                           1137 ; genPlus
                           1138 ; genPlusIncr
   03E4 11 A6 00           1139 	ld	de,#_Maze + 0 + 166
                           1140 ; genAssign (pointer)
   03E7 3E 01              1141 	ld	a,#0x01
   03E9 12                 1142 	ld	(de),a
                           1143 ; genPlus
                           1144 ; genPlusIncr
   03EA 11 A7 00           1145 	ld	de,#_Maze + 0 + 167
                           1146 ; genAssign (pointer)
   03ED 3E 00              1147 	ld	a,#0x00
   03EF 12                 1148 	ld	(de),a
                           1149 ; genPlus
                           1150 ; genPlusIncr
   03F0 11 A8 00           1151 	ld	de,#_Maze + 0 + 168
                           1152 ; genAssign (pointer)
   03F3 3E 01              1153 	ld	a,#0x01
   03F5 12                 1154 	ld	(de),a
                           1155 ; genPlus
                           1156 ; genPlusIncr
   03F6 11 A9 00           1157 	ld	de,#_Maze + 0 + 169
                           1158 ; genAssign (pointer)
   03F9 3E 00              1159 	ld	a,#0x00
   03FB 12                 1160 	ld	(de),a
                           1161 ; genPlus
                           1162 ; genPlusIncr
   03FC 11 AA 00           1163 	ld	de,#_Maze + 0 + 170
                           1164 ; genAssign (pointer)
   03FF 3E 00              1165 	ld	a,#0x00
   0401 12                 1166 	ld	(de),a
                           1167 ; genPlus
                           1168 ; genPlusIncr
   0402 11 AB 00           1169 	ld	de,#_Maze + 0 + 171
                           1170 ; genAssign (pointer)
   0405 3E 00              1171 	ld	a,#0x00
   0407 12                 1172 	ld	(de),a
                           1173 ; genPlus
                           1174 ; genPlusIncr
   0408 11 AC 00           1175 	ld	de,#_Maze + 0 + 172
                           1176 ; genAssign (pointer)
   040B 3E 00              1177 	ld	a,#0x00
   040D 12                 1178 	ld	(de),a
                           1179 ; genPlus
                           1180 ; genPlusIncr
   040E 11 AD 00           1181 	ld	de,#_Maze + 0 + 173
                           1182 ; genAssign (pointer)
   0411 3E 00              1183 	ld	a,#0x00
   0413 12                 1184 	ld	(de),a
                           1185 ; genPlus
                           1186 ; genPlusIncr
   0414 11 AE 00           1187 	ld	de,#_Maze + 0 + 174
                           1188 ; genAssign (pointer)
   0417 3E 00              1189 	ld	a,#0x00
   0419 12                 1190 	ld	(de),a
                           1191 ; genPlus
                           1192 ; genPlusIncr
   041A 11 AF 00           1193 	ld	de,#_Maze + 0 + 175
                           1194 ; genAssign (pointer)
   041D 3E 00              1195 	ld	a,#0x00
   041F 12                 1196 	ld	(de),a
                           1197 ; genPlus
                           1198 ; genPlusIncr
   0420 11 B0 00           1199 	ld	de,#_Maze + 0 + 176
                           1200 ; genAssign (pointer)
   0423 3E 00              1201 	ld	a,#0x00
   0425 12                 1202 	ld	(de),a
                           1203 ; genPlus
                           1204 ; genPlusIncr
   0426 11 B1 00           1205 	ld	de,#_Maze + 0 + 177
                           1206 ; genAssign (pointer)
   0429 3E 01              1207 	ld	a,#0x01
   042B 12                 1208 	ld	(de),a
                           1209 ; genPlus
                           1210 ; genPlusIncr
   042C 11 B2 00           1211 	ld	de,#_Maze + 0 + 178
                           1212 ; genAssign (pointer)
   042F 3E 00              1213 	ld	a,#0x00
   0431 12                 1214 	ld	(de),a
                           1215 ; genPlus
                           1216 ; genPlusIncr
   0432 11 B3 00           1217 	ld	de,#_Maze + 0 + 179
                           1218 ; genAssign (pointer)
   0435 3E 01              1219 	ld	a,#0x01
   0437 12                 1220 	ld	(de),a
                           1221 ; genPlus
                           1222 ; genPlusIncr
   0438 11 B4 00           1223 	ld	de,#_Maze + 0 + 180
                           1224 ; genAssign (pointer)
   043B 3E 01              1225 	ld	a,#0x01
   043D 12                 1226 	ld	(de),a
                           1227 ; genPlus
                           1228 ; genPlusIncr
   043E 11 B5 00           1229 	ld	de,#_Maze + 0 + 181
                           1230 ; genAssign (pointer)
   0441 3E 00              1231 	ld	a,#0x00
   0443 12                 1232 	ld	(de),a
                           1233 ; genPlus
                           1234 ; genPlusIncr
   0444 11 B6 00           1235 	ld	de,#_Maze + 0 + 182
                           1236 ; genAssign (pointer)
   0447 3E 01              1237 	ld	a,#0x01
   0449 12                 1238 	ld	(de),a
                           1239 ; genPlus
                           1240 ; genPlusIncr
   044A 11 B7 00           1241 	ld	de,#_Maze + 0 + 183
                           1242 ; genAssign (pointer)
   044D 3E 02              1243 	ld	a,#0x02
   044F 12                 1244 	ld	(de),a
                           1245 ; genPlus
                           1246 ; genPlusIncr
   0450 11 B8 00           1247 	ld	de,#_Maze + 0 + 184
                           1248 ; genAssign (pointer)
   0453 3E 01              1249 	ld	a,#0x01
   0455 12                 1250 	ld	(de),a
                           1251 ; genPlus
                           1252 ; genPlusIncr
   0456 11 B9 00           1253 	ld	de,#_Maze + 0 + 185
                           1254 ; genAssign (pointer)
   0459 3E 00              1255 	ld	a,#0x00
   045B 12                 1256 	ld	(de),a
                           1257 ; genPlus
                           1258 ; genPlusIncr
   045C 11 BA 00           1259 	ld	de,#_Maze + 0 + 186
                           1260 ; genAssign (pointer)
   045F 3E 01              1261 	ld	a,#0x01
   0461 12                 1262 	ld	(de),a
                           1263 ; genPlus
                           1264 ; genPlusIncr
   0462 11 BB 00           1265 	ld	de,#_Maze + 0 + 187
                           1266 ; genAssign (pointer)
   0465 3E 00              1267 	ld	a,#0x00
   0467 12                 1268 	ld	(de),a
                           1269 ; genPlus
                           1270 ; genPlusIncr
   0468 11 BC 00           1271 	ld	de,#_Maze + 0 + 188
                           1272 ; genAssign (pointer)
   046B 3E 01              1273 	ld	a,#0x01
   046D 12                 1274 	ld	(de),a
                           1275 ; genPlus
                           1276 ; genPlusIncr
   046E 11 BD 00           1277 	ld	de,#_Maze + 0 + 189
                           1278 ; genAssign (pointer)
   0471 3E 00              1279 	ld	a,#0x00
   0473 12                 1280 	ld	(de),a
                           1281 ; genPlus
                           1282 ; genPlusIncr
   0474 11 BE 00           1283 	ld	de,#_Maze + 0 + 190
                           1284 ; genAssign (pointer)
   0477 3E 01              1285 	ld	a,#0x01
   0479 12                 1286 	ld	(de),a
                           1287 ; genPlus
                           1288 ; genPlusIncr
   047A 11 BF 00           1289 	ld	de,#_Maze + 0 + 191
                           1290 ; genAssign (pointer)
   047D 3E 01              1291 	ld	a,#0x01
   047F 12                 1292 	ld	(de),a
                           1293 ; genPlus
                           1294 ; genPlusIncr
   0480 11 C0 00           1295 	ld	de,#_Maze + 0 + 192
                           1296 ; genAssign (pointer)
   0483 3E 01              1297 	ld	a,#0x01
   0485 12                 1298 	ld	(de),a
                           1299 ; genPlus
                           1300 ; genPlusIncr
   0486 11 C1 00           1301 	ld	de,#_Maze + 0 + 193
                           1302 ; genAssign (pointer)
   0489 3E 01              1303 	ld	a,#0x01
   048B 12                 1304 	ld	(de),a
                           1305 ; genPlus
                           1306 ; genPlusIncr
   048C 11 C2 00           1307 	ld	de,#_Maze + 0 + 194
                           1308 ; genAssign (pointer)
   048F 3E 01              1309 	ld	a,#0x01
   0491 12                 1310 	ld	(de),a
                           1311 ; genPlus
                           1312 ; genPlusIncr
   0492 11 C3 00           1313 	ld	de,#_Maze + 0 + 195
                           1314 ; genAssign (pointer)
   0495 3E 01              1315 	ld	a,#0x01
   0497 12                 1316 	ld	(de),a
                           1317 ; genPlus
                           1318 ; genPlusIncr
   0498 11 C4 00           1319 	ld	de,#_Maze + 0 + 196
                           1320 ; genAssign (pointer)
   049B 3E 01              1321 	ld	a,#0x01
   049D 12                 1322 	ld	(de),a
                           1323 ; genPlus
                           1324 ; genPlusIncr
   049E 11 C5 00           1325 	ld	de,#_Maze + 0 + 197
                           1326 ; genAssign (pointer)
   04A1 3E 01              1327 	ld	a,#0x01
   04A3 12                 1328 	ld	(de),a
                           1329 ; genPlus
                           1330 ; genPlusIncr
   04A4 11 C6 00           1331 	ld	de,#_Maze + 0 + 198
                           1332 ; genAssign (pointer)
   04A7 3E 00              1333 	ld	a,#0x00
   04A9 12                 1334 	ld	(de),a
                           1335 ; genPlus
                           1336 ; genPlusIncr
   04AA 11 C7 00           1337 	ld	de,#_Maze + 0 + 199
                           1338 ; genAssign (pointer)
   04AD 3E 01              1339 	ld	a,#0x01
   04AF 12                 1340 	ld	(de),a
                           1341 ; genPlus
                           1342 ; genPlusIncr
   04B0 11 C8 00           1343 	ld	de,#_Maze + 0 + 200
                           1344 ; genAssign (pointer)
   04B3 3E 01              1345 	ld	a,#0x01
   04B5 12                 1346 	ld	(de),a
                           1347 ; genPlus
                           1348 ; genPlusIncr
   04B6 11 C9 00           1349 	ld	de,#_Maze + 0 + 201
                           1350 ; genAssign (pointer)
   04B9 3E 00              1351 	ld	a,#0x00
   04BB 12                 1352 	ld	(de),a
                           1353 ; genPlus
                           1354 ; genPlusIncr
   04BC 11 CA 00           1355 	ld	de,#_Maze + 0 + 202
                           1356 ; genAssign (pointer)
   04BF 3E 01              1357 	ld	a,#0x01
   04C1 12                 1358 	ld	(de),a
                           1359 ; genPlus
                           1360 ; genPlusIncr
   04C2 11 CB 00           1361 	ld	de,#_Maze + 0 + 203
                           1362 ; genAssign (pointer)
   04C5 3E 00              1363 	ld	a,#0x00
   04C7 12                 1364 	ld	(de),a
                           1365 ; genPlus
                           1366 ; genPlusIncr
   04C8 11 CC 00           1367 	ld	de,#_Maze + 0 + 204
                           1368 ; genAssign (pointer)
   04CB 3E 01              1369 	ld	a,#0x01
   04CD 12                 1370 	ld	(de),a
                           1371 ; genPlus
                           1372 ; genPlusIncr
   04CE 11 CD 00           1373 	ld	de,#_Maze + 0 + 205
                           1374 ; genAssign (pointer)
   04D1 3E 00              1375 	ld	a,#0x00
   04D3 12                 1376 	ld	(de),a
                           1377 ; genPlus
                           1378 ; genPlusIncr
   04D4 11 CE 00           1379 	ld	de,#_Maze + 0 + 206
                           1380 ; genAssign (pointer)
   04D7 3E 00              1381 	ld	a,#0x00
   04D9 12                 1382 	ld	(de),a
                           1383 ; genPlus
                           1384 ; genPlusIncr
   04DA 11 CF 00           1385 	ld	de,#_Maze + 0 + 207
                           1386 ; genAssign (pointer)
   04DD 3E 00              1387 	ld	a,#0x00
   04DF 12                 1388 	ld	(de),a
                           1389 ; genPlus
                           1390 ; genPlusIncr
   04E0 11 D0 00           1391 	ld	de,#_Maze + 0 + 208
                           1392 ; genAssign (pointer)
   04E3 3E 01              1393 	ld	a,#0x01
   04E5 12                 1394 	ld	(de),a
                           1395 ; genPlus
                           1396 ; genPlusIncr
   04E6 11 D1 00           1397 	ld	de,#_Maze + 0 + 209
                           1398 ; genAssign (pointer)
   04E9 3E 00              1399 	ld	a,#0x00
   04EB 12                 1400 	ld	(de),a
                           1401 ; genPlus
                           1402 ; genPlusIncr
   04EC 11 D2 00           1403 	ld	de,#_Maze + 0 + 210
                           1404 ; genAssign (pointer)
   04EF 3E 01              1405 	ld	a,#0x01
   04F1 12                 1406 	ld	(de),a
                           1407 ; genPlus
                           1408 ; genPlusIncr
   04F2 11 D3 00           1409 	ld	de,#_Maze + 0 + 211
                           1410 ; genAssign (pointer)
   04F5 3E 00              1411 	ld	a,#0x00
   04F7 12                 1412 	ld	(de),a
                           1413 ; genPlus
                           1414 ; genPlusIncr
   04F8 11 D4 00           1415 	ld	de,#_Maze + 0 + 212
                           1416 ; genAssign (pointer)
   04FB 3E 00              1417 	ld	a,#0x00
   04FD 12                 1418 	ld	(de),a
                           1419 ; genPlus
                           1420 ; genPlusIncr
   04FE 11 D5 00           1421 	ld	de,#_Maze + 0 + 213
                           1422 ; genAssign (pointer)
   0501 3E 00              1423 	ld	a,#0x00
   0503 12                 1424 	ld	(de),a
                           1425 ; genPlus
                           1426 ; genPlusIncr
   0504 11 D6 00           1427 	ld	de,#_Maze + 0 + 214
                           1428 ; genAssign (pointer)
   0507 3E 00              1429 	ld	a,#0x00
   0509 12                 1430 	ld	(de),a
                           1431 ; genPlus
                           1432 ; genPlusIncr
   050A 11 D7 00           1433 	ld	de,#_Maze + 0 + 215
                           1434 ; genAssign (pointer)
   050D 3E 00              1435 	ld	a,#0x00
   050F 12                 1436 	ld	(de),a
                           1437 ; genPlus
                           1438 ; genPlusIncr
   0510 11 D8 00           1439 	ld	de,#_Maze + 0 + 216
                           1440 ; genAssign (pointer)
   0513 3E 02              1441 	ld	a,#0x02
   0515 12                 1442 	ld	(de),a
                           1443 ; genPlus
                           1444 ; genPlusIncr
   0516 11 D9 00           1445 	ld	de,#_Maze + 0 + 217
                           1446 ; genAssign (pointer)
   0519 3E 01              1447 	ld	a,#0x01
   051B 12                 1448 	ld	(de),a
                           1449 ; genPlus
                           1450 ; genPlusIncr
   051C 11 DA 00           1451 	ld	de,#_Maze + 0 + 218
                           1452 ; genAssign (pointer)
   051F 3E 00              1453 	ld	a,#0x00
   0521 12                 1454 	ld	(de),a
                           1455 ; genPlus
                           1456 ; genPlusIncr
   0522 11 DB 00           1457 	ld	de,#_Maze + 0 + 219
                           1458 ; genAssign (pointer)
   0525 3E 01              1459 	ld	a,#0x01
   0527 12                 1460 	ld	(de),a
                           1461 ; genPlus
                           1462 ; genPlusIncr
   0528 11 DC 00           1463 	ld	de,#_Maze + 0 + 220
                           1464 ; genAssign (pointer)
   052B 3E 01              1465 	ld	a,#0x01
   052D 12                 1466 	ld	(de),a
                           1467 ; genPlus
                           1468 ; genPlusIncr
   052E 11 DD 00           1469 	ld	de,#_Maze + 0 + 221
                           1470 ; genAssign (pointer)
   0531 3E 00              1471 	ld	a,#0x00
   0533 12                 1472 	ld	(de),a
                           1473 ; genPlus
                           1474 ; genPlusIncr
   0534 11 DE 00           1475 	ld	de,#_Maze + 0 + 222
                           1476 ; genAssign (pointer)
   0537 3E 01              1477 	ld	a,#0x01
   0539 12                 1478 	ld	(de),a
                           1479 ; genPlus
                           1480 ; genPlusIncr
   053A 11 DF 00           1481 	ld	de,#_Maze + 0 + 223
                           1482 ; genAssign (pointer)
   053D 3E 00              1483 	ld	a,#0x00
   053F 12                 1484 	ld	(de),a
                           1485 ; genPlus
                           1486 ; genPlusIncr
   0540 11 E0 00           1487 	ld	de,#_Maze + 0 + 224
                           1488 ; genAssign (pointer)
   0543 3E 01              1489 	ld	a,#0x01
   0545 12                 1490 	ld	(de),a
                           1491 ; genPlus
                           1492 ; genPlusIncr
   0546 11 E1 00           1493 	ld	de,#_Maze + 0 + 225
                           1494 ; genAssign (pointer)
   0549 3E 01              1495 	ld	a,#0x01
   054B 12                 1496 	ld	(de),a
                           1497 ; genPlus
                           1498 ; genPlusIncr
   054C 11 E2 00           1499 	ld	de,#_Maze + 0 + 226
                           1500 ; genAssign (pointer)
   054F 3E 01              1501 	ld	a,#0x01
   0551 12                 1502 	ld	(de),a
                           1503 ; genPlus
                           1504 ; genPlusIncr
   0552 11 E3 00           1505 	ld	de,#_Maze + 0 + 227
                           1506 ; genAssign (pointer)
   0555 3E 01              1507 	ld	a,#0x01
   0557 12                 1508 	ld	(de),a
                           1509 ; genPlus
                           1510 ; genPlusIncr
   0558 11 E4 00           1511 	ld	de,#_Maze + 0 + 228
                           1512 ; genAssign (pointer)
   055B 3E 01              1513 	ld	a,#0x01
   055D 12                 1514 	ld	(de),a
                           1515 ; genPlus
                           1516 ; genPlusIncr
   055E 11 E5 00           1517 	ld	de,#_Maze + 0 + 229
                           1518 ; genAssign (pointer)
   0561 3E 00              1519 	ld	a,#0x00
   0563 12                 1520 	ld	(de),a
                           1521 ; genPlus
                           1522 ; genPlusIncr
   0564 11 E6 00           1523 	ld	de,#_Maze + 0 + 230
                           1524 ; genAssign (pointer)
   0567 3E 01              1525 	ld	a,#0x01
   0569 12                 1526 	ld	(de),a
                           1527 ; genPlus
                           1528 ; genPlusIncr
   056A 11 E7 00           1529 	ld	de,#_Maze + 0 + 231
                           1530 ; genAssign (pointer)
   056D 3E 00              1531 	ld	a,#0x00
   056F 12                 1532 	ld	(de),a
                           1533 ; genPlus
                           1534 ; genPlusIncr
   0570 11 E8 00           1535 	ld	de,#_Maze + 0 + 232
                           1536 ; genAssign (pointer)
   0573 3E 01              1537 	ld	a,#0x01
   0575 12                 1538 	ld	(de),a
                           1539 ; genPlus
                           1540 ; genPlusIncr
   0576 11 E9 00           1541 	ld	de,#_Maze + 0 + 233
                           1542 ; genAssign (pointer)
   0579 3E 01              1543 	ld	a,#0x01
   057B 12                 1544 	ld	(de),a
                           1545 ; genPlus
                           1546 ; genPlusIncr
   057C 11 EA 00           1547 	ld	de,#_Maze + 0 + 234
                           1548 ; genAssign (pointer)
   057F 3E 01              1549 	ld	a,#0x01
   0581 12                 1550 	ld	(de),a
                           1551 ; genPlus
                           1552 ; genPlusIncr
   0582 11 EB 00           1553 	ld	de,#_Maze + 0 + 235
                           1554 ; genAssign (pointer)
   0585 3E 01              1555 	ld	a,#0x01
   0587 12                 1556 	ld	(de),a
                           1557 ; genPlus
                           1558 ; genPlusIncr
   0588 11 EC 00           1559 	ld	de,#_Maze + 0 + 236
                           1560 ; genAssign (pointer)
   058B 3E 01              1561 	ld	a,#0x01
   058D 12                 1562 	ld	(de),a
                           1563 ; genPlus
                           1564 ; genPlusIncr
   058E 11 ED 00           1565 	ld	de,#_Maze + 0 + 237
                           1566 ; genAssign (pointer)
   0591 3E 01              1567 	ld	a,#0x01
   0593 12                 1568 	ld	(de),a
                           1569 ; genPlus
                           1570 ; genPlusIncr
   0594 11 EE 00           1571 	ld	de,#_Maze + 0 + 238
                           1572 ; genAssign (pointer)
   0597 3E 00              1573 	ld	a,#0x00
   0599 12                 1574 	ld	(de),a
                           1575 ; genPlus
                           1576 ; genPlusIncr
   059A 11 EF 00           1577 	ld	de,#_Maze + 0 + 239
                           1578 ; genAssign (pointer)
   059D 3E 01              1579 	ld	a,#0x01
   059F 12                 1580 	ld	(de),a
                           1581 ; genPlus
                           1582 ; genPlusIncr
   05A0 11 F0 00           1583 	ld	de,#_Maze + 0 + 240
                           1584 ; genAssign (pointer)
   05A3 3E 01              1585 	ld	a,#0x01
   05A5 12                 1586 	ld	(de),a
                           1587 ; genPlus
                           1588 ; genPlusIncr
   05A6 11 F1 00           1589 	ld	de,#_Maze + 0 + 241
                           1590 ; genAssign (pointer)
   05A9 3E 00              1591 	ld	a,#0x00
   05AB 12                 1592 	ld	(de),a
                           1593 ; genPlus
                           1594 ; genPlusIncr
   05AC 11 F2 00           1595 	ld	de,#_Maze + 0 + 242
                           1596 ; genAssign (pointer)
   05AF 3E 01              1597 	ld	a,#0x01
   05B1 12                 1598 	ld	(de),a
                           1599 ; genPlus
                           1600 ; genPlusIncr
   05B2 11 F3 00           1601 	ld	de,#_Maze + 0 + 243
                           1602 ; genAssign (pointer)
   05B5 3E 00              1603 	ld	a,#0x00
   05B7 12                 1604 	ld	(de),a
                           1605 ; genPlus
                           1606 ; genPlusIncr
   05B8 11 F4 00           1607 	ld	de,#_Maze + 0 + 244
                           1608 ; genAssign (pointer)
   05BB 3E 00              1609 	ld	a,#0x00
   05BD 12                 1610 	ld	(de),a
                           1611 ; genPlus
                           1612 ; genPlusIncr
   05BE 11 F5 00           1613 	ld	de,#_Maze + 0 + 245
                           1614 ; genAssign (pointer)
   05C1 3E 00              1615 	ld	a,#0x00
   05C3 12                 1616 	ld	(de),a
                           1617 ; genPlus
                           1618 ; genPlusIncr
   05C4 11 F6 00           1619 	ld	de,#_Maze + 0 + 246
                           1620 ; genAssign (pointer)
   05C7 3E 00              1621 	ld	a,#0x00
   05C9 12                 1622 	ld	(de),a
                           1623 ; genPlus
                           1624 ; genPlusIncr
   05CA 11 F7 00           1625 	ld	de,#_Maze + 0 + 247
                           1626 ; genAssign (pointer)
   05CD 3E 00              1627 	ld	a,#0x00
   05CF 12                 1628 	ld	(de),a
                           1629 ; genPlus
                           1630 ; genPlusIncr
   05D0 11 F8 00           1631 	ld	de,#_Maze + 0 + 248
                           1632 ; genAssign (pointer)
   05D3 3E 00              1633 	ld	a,#0x00
   05D5 12                 1634 	ld	(de),a
                           1635 ; genPlus
                           1636 ; genPlusIncr
   05D6 11 F9 00           1637 	ld	de,#_Maze + 0 + 249
                           1638 ; genAssign (pointer)
   05D9 3E 00              1639 	ld	a,#0x00
   05DB 12                 1640 	ld	(de),a
                           1641 ; genPlus
                           1642 ; genPlusIncr
   05DC 11 FA 00           1643 	ld	de,#_Maze + 0 + 250
                           1644 ; genAssign (pointer)
   05DF 3E 01              1645 	ld	a,#0x01
   05E1 12                 1646 	ld	(de),a
                           1647 ; genPlus
                           1648 ; genPlusIncr
   05E2 11 FB 00           1649 	ld	de,#_Maze + 0 + 251
                           1650 ; genAssign (pointer)
   05E5 3E 00              1651 	ld	a,#0x00
   05E7 12                 1652 	ld	(de),a
                           1653 ; genPlus
                           1654 ; genPlusIncr
   05E8 11 FC 00           1655 	ld	de,#_Maze + 0 + 252
                           1656 ; genAssign (pointer)
   05EB 3E 01              1657 	ld	a,#0x01
   05ED 12                 1658 	ld	(de),a
                           1659 ; genPlus
                           1660 ; genPlusIncr
   05EE 11 FD 00           1661 	ld	de,#_Maze + 0 + 253
                           1662 ; genAssign (pointer)
   05F1 3E 00              1663 	ld	a,#0x00
   05F3 12                 1664 	ld	(de),a
                           1665 ; genPlus
                           1666 ; genPlusIncr
   05F4 11 FE 00           1667 	ld	de,#_Maze + 0 + 254
                           1668 ; genAssign (pointer)
   05F7 3E 00              1669 	ld	a,#0x00
   05F9 12                 1670 	ld	(de),a
                           1671 ; genPlus
                           1672 ; genPlusIncr
   05FA 11 FF 00           1673 	ld	de,#_Maze + 0 + 255
                           1674 ; genAssign (pointer)
   05FD 3E 00              1675 	ld	a,#0x00
   05FF 12                 1676 	ld	(de),a
                           1677 ; genPlus
                           1678 ; genPlusIncr
   0600 11 00 01           1679 	ld	de,#_Maze + 0 + 256
                           1680 ; genAssign (pointer)
   0603 3E 00              1681 	ld	a,#0x00
   0605 12                 1682 	ld	(de),a
                           1683 ; genPlus
                           1684 ; genPlusIncr
   0606 11 01 01           1685 	ld	de,#_Maze + 0 + 257
                           1686 ; genAssign (pointer)
   0609 3E 00              1687 	ld	a,#0x00
   060B 12                 1688 	ld	(de),a
                           1689 ; genPlus
                           1690 ; genPlusIncr
   060C 11 02 01           1691 	ld	de,#_Maze + 0 + 258
                           1692 ; genAssign (pointer)
   060F 3E 00              1693 	ld	a,#0x00
   0611 12                 1694 	ld	(de),a
                           1695 ; genPlus
                           1696 ; genPlusIncr
   0612 11 03 01           1697 	ld	de,#_Maze + 0 + 259
                           1698 ; genAssign (pointer)
   0615 3E 01              1699 	ld	a,#0x01
   0617 12                 1700 	ld	(de),a
                           1701 ; genPlus
                           1702 ; genPlusIncr
   0618 11 04 01           1703 	ld	de,#_Maze + 0 + 260
                           1704 ; genAssign (pointer)
   061B 3E 01              1705 	ld	a,#0x01
   061D 12                 1706 	ld	(de),a
                           1707 ; genPlus
                           1708 ; genPlusIncr
   061E 11 05 01           1709 	ld	de,#_Maze + 0 + 261
                           1710 ; genAssign (pointer)
   0621 3E 00              1711 	ld	a,#0x00
   0623 12                 1712 	ld	(de),a
                           1713 ; genPlus
                           1714 ; genPlusIncr
   0624 11 06 01           1715 	ld	de,#_Maze + 0 + 262
                           1716 ; genAssign (pointer)
   0627 3E 01              1717 	ld	a,#0x01
   0629 12                 1718 	ld	(de),a
                           1719 ; genPlus
                           1720 ; genPlusIncr
   062A 11 07 01           1721 	ld	de,#_Maze + 0 + 263
                           1722 ; genAssign (pointer)
   062D 3E 01              1723 	ld	a,#0x01
   062F 12                 1724 	ld	(de),a
                           1725 ; genPlus
                           1726 ; genPlusIncr
   0630 11 08 01           1727 	ld	de,#_Maze + 0 + 264
                           1728 ; genAssign (pointer)
   0633 3E 01              1729 	ld	a,#0x01
   0635 12                 1730 	ld	(de),a
                           1731 ; genPlus
                           1732 ; genPlusIncr
   0636 11 09 01           1733 	ld	de,#_Maze + 0 + 265
                           1734 ; genAssign (pointer)
   0639 3E 01              1735 	ld	a,#0x01
   063B 12                 1736 	ld	(de),a
                           1737 ; genPlus
                           1738 ; genPlusIncr
   063C 11 0A 01           1739 	ld	de,#_Maze + 0 + 266
                           1740 ; genAssign (pointer)
   063F 3E 01              1741 	ld	a,#0x01
   0641 12                 1742 	ld	(de),a
                           1743 ; genPlus
                           1744 ; genPlusIncr
   0642 11 0B 01           1745 	ld	de,#_Maze + 0 + 267
                           1746 ; genAssign (pointer)
   0645 3E 01              1747 	ld	a,#0x01
   0647 12                 1748 	ld	(de),a
                           1749 ; genPlus
                           1750 ; genPlusIncr
   0648 11 0C 01           1751 	ld	de,#_Maze + 0 + 268
                           1752 ; genAssign (pointer)
   064B 3E 01              1753 	ld	a,#0x01
   064D 12                 1754 	ld	(de),a
                           1755 ; genPlus
                           1756 ; genPlusIncr
   064E 11 0D 01           1757 	ld	de,#_Maze + 0 + 269
                           1758 ; genAssign (pointer)
   0651 3E 01              1759 	ld	a,#0x01
   0653 12                 1760 	ld	(de),a
                           1761 ; genPlus
                           1762 ; genPlusIncr
   0654 11 0E 01           1763 	ld	de,#_Maze + 0 + 270
                           1764 ; genAssign (pointer)
   0657 3E 01              1765 	ld	a,#0x01
   0659 12                 1766 	ld	(de),a
                           1767 ; genPlus
                           1768 ; genPlusIncr
   065A 11 0F 01           1769 	ld	de,#_Maze + 0 + 271
                           1770 ; genAssign (pointer)
   065D 3E 00              1771 	ld	a,#0x00
   065F 12                 1772 	ld	(de),a
                           1773 ; genPlus
                           1774 ; genPlusIncr
   0660 11 10 01           1775 	ld	de,#_Maze + 0 + 272
                           1776 ; genAssign (pointer)
   0663 3E 01              1777 	ld	a,#0x01
   0665 12                 1778 	ld	(de),a
                           1779 ; genPlus
                           1780 ; genPlusIncr
   0666 11 11 01           1781 	ld	de,#_Maze + 0 + 273
                           1782 ; genAssign (pointer)
   0669 3E 00              1783 	ld	a,#0x00
   066B 12                 1784 	ld	(de),a
                           1785 ; genPlus
                           1786 ; genPlusIncr
   066C 11 12 01           1787 	ld	de,#_Maze + 0 + 274
                           1788 ; genAssign (pointer)
   066F 3E 01              1789 	ld	a,#0x01
   0671 12                 1790 	ld	(de),a
                           1791 ; genPlus
                           1792 ; genPlusIncr
   0672 11 13 01           1793 	ld	de,#_Maze + 0 + 275
                           1794 ; genAssign (pointer)
   0675 3E 01              1795 	ld	a,#0x01
   0677 12                 1796 	ld	(de),a
                           1797 ; genPlus
                           1798 ; genPlusIncr
   0678 11 14 01           1799 	ld	de,#_Maze + 0 + 276
                           1800 ; genAssign (pointer)
   067B 3E 01              1801 	ld	a,#0x01
   067D 12                 1802 	ld	(de),a
                           1803 ; genPlus
                           1804 ; genPlusIncr
   067E 11 15 01           1805 	ld	de,#_Maze + 0 + 277
                           1806 ; genAssign (pointer)
   0681 3E 01              1807 	ld	a,#0x01
   0683 12                 1808 	ld	(de),a
                           1809 ; genPlus
                           1810 ; genPlusIncr
   0684 11 16 01           1811 	ld	de,#_Maze + 0 + 278
                           1812 ; genAssign (pointer)
   0687 3E 00              1813 	ld	a,#0x00
   0689 12                 1814 	ld	(de),a
                           1815 ; genPlus
                           1816 ; genPlusIncr
   068A 11 17 01           1817 	ld	de,#_Maze + 0 + 279
                           1818 ; genAssign (pointer)
   068D 3E 01              1819 	ld	a,#0x01
   068F 12                 1820 	ld	(de),a
                           1821 ; genPlus
                           1822 ; genPlusIncr
   0690 11 18 01           1823 	ld	de,#_Maze + 0 + 280
                           1824 ; genAssign (pointer)
   0693 3E 01              1825 	ld	a,#0x01
   0695 12                 1826 	ld	(de),a
                           1827 ; genPlus
                           1828 ; genPlusIncr
   0696 11 19 01           1829 	ld	de,#_Maze + 0 + 281
                           1830 ; genAssign (pointer)
   0699 3E 00              1831 	ld	a,#0x00
   069B 12                 1832 	ld	(de),a
                           1833 ; genPlus
                           1834 ; genPlusIncr
   069C 11 1A 01           1835 	ld	de,#_Maze + 0 + 282
                           1836 ; genAssign (pointer)
   069F 3E 00              1837 	ld	a,#0x00
   06A1 12                 1838 	ld	(de),a
                           1839 ; genPlus
                           1840 ; genPlusIncr
   06A2 11 1B 01           1841 	ld	de,#_Maze + 0 + 283
                           1842 ; genAssign (pointer)
   06A5 3E 00              1843 	ld	a,#0x00
   06A7 12                 1844 	ld	(de),a
                           1845 ; genPlus
                           1846 ; genPlusIncr
   06A8 11 1C 01           1847 	ld	de,#_Maze + 0 + 284
                           1848 ; genAssign (pointer)
   06AB 3E 00              1849 	ld	a,#0x00
   06AD 12                 1850 	ld	(de),a
                           1851 ; genPlus
                           1852 ; genPlusIncr
   06AE 11 1D 01           1853 	ld	de,#_Maze + 0 + 285
                           1854 ; genAssign (pointer)
   06B1 3E 00              1855 	ld	a,#0x00
   06B3 12                 1856 	ld	(de),a
                           1857 ; genPlus
                           1858 ; genPlusIncr
   06B4 11 1E 01           1859 	ld	de,#_Maze + 0 + 286
                           1860 ; genAssign (pointer)
   06B7 3E 00              1861 	ld	a,#0x00
   06B9 12                 1862 	ld	(de),a
                           1863 ; genPlus
                           1864 ; genPlusIncr
   06BA 11 1F 01           1865 	ld	de,#_Maze + 0 + 287
                           1866 ; genAssign (pointer)
   06BD 3E 00              1867 	ld	a,#0x00
   06BF 12                 1868 	ld	(de),a
                           1869 ; genPlus
                           1870 ; genPlusIncr
   06C0 11 20 01           1871 	ld	de,#_Maze + 0 + 288
                           1872 ; genAssign (pointer)
   06C3 3E 00              1873 	ld	a,#0x00
   06C5 12                 1874 	ld	(de),a
                           1875 ; genPlus
                           1876 ; genPlusIncr
   06C6 11 21 01           1877 	ld	de,#_Maze + 0 + 289
                           1878 ; genAssign (pointer)
   06C9 3E 00              1879 	ld	a,#0x00
   06CB 12                 1880 	ld	(de),a
                           1881 ; genPlus
                           1882 ; genPlusIncr
   06CC 11 22 01           1883 	ld	de,#_Maze + 0 + 290
                           1884 ; genAssign (pointer)
   06CF 3E 00              1885 	ld	a,#0x00
   06D1 12                 1886 	ld	(de),a
                           1887 ; genPlus
                           1888 ; genPlusIncr
   06D2 11 23 01           1889 	ld	de,#_Maze + 0 + 291
                           1890 ; genAssign (pointer)
   06D5 3E 00              1891 	ld	a,#0x00
   06D7 12                 1892 	ld	(de),a
                           1893 ; genPlus
                           1894 ; genPlusIncr
   06D8 11 24 01           1895 	ld	de,#_Maze + 0 + 292
                           1896 ; genAssign (pointer)
   06DB 3E 01              1897 	ld	a,#0x01
   06DD 12                 1898 	ld	(de),a
                           1899 ; genPlus
                           1900 ; genPlusIncr
   06DE 11 25 01           1901 	ld	de,#_Maze + 0 + 293
                           1902 ; genAssign (pointer)
   06E1 3E 00              1903 	ld	a,#0x00
   06E3 12                 1904 	ld	(de),a
                           1905 ; genPlus
                           1906 ; genPlusIncr
   06E4 11 26 01           1907 	ld	de,#_Maze + 0 + 294
                           1908 ; genAssign (pointer)
   06E7 3E 01              1909 	ld	a,#0x01
   06E9 12                 1910 	ld	(de),a
                           1911 ; genPlus
                           1912 ; genPlusIncr
   06EA 11 27 01           1913 	ld	de,#_Maze + 0 + 295
                           1914 ; genAssign (pointer)
   06ED 3E 00              1915 	ld	a,#0x00
   06EF 12                 1916 	ld	(de),a
                           1917 ; genPlus
                           1918 ; genPlusIncr
   06F0 11 28 01           1919 	ld	de,#_Maze + 0 + 296
                           1920 ; genAssign (pointer)
   06F3 3E 00              1921 	ld	a,#0x00
   06F5 12                 1922 	ld	(de),a
                           1923 ; genPlus
                           1924 ; genPlusIncr
   06F6 11 29 01           1925 	ld	de,#_Maze + 0 + 297
                           1926 ; genAssign (pointer)
   06F9 3E 00              1927 	ld	a,#0x00
   06FB 12                 1928 	ld	(de),a
                           1929 ; genPlus
                           1930 ; genPlusIncr
   06FC 11 2A 01           1931 	ld	de,#_Maze + 0 + 298
                           1932 ; genAssign (pointer)
   06FF 3E 00              1933 	ld	a,#0x00
   0701 12                 1934 	ld	(de),a
                           1935 ; genPlus
                           1936 ; genPlusIncr
   0702 11 2B 01           1937 	ld	de,#_Maze + 0 + 299
                           1938 ; genAssign (pointer)
   0705 3E 01              1939 	ld	a,#0x01
   0707 12                 1940 	ld	(de),a
                           1941 ; genPlus
                           1942 ; genPlusIncr
   0708 11 2C 01           1943 	ld	de,#_Maze + 0 + 300
                           1944 ; genAssign (pointer)
   070B 3E 01              1945 	ld	a,#0x01
   070D 12                 1946 	ld	(de),a
                           1947 ; genPlus
                           1948 ; genPlusIncr
   070E 11 2D 01           1949 	ld	de,#_Maze + 0 + 301
                           1950 ; genAssign (pointer)
   0711 3E 00              1951 	ld	a,#0x00
   0713 12                 1952 	ld	(de),a
                           1953 ; genPlus
                           1954 ; genPlusIncr
   0714 11 2E 01           1955 	ld	de,#_Maze + 0 + 302
                           1956 ; genAssign (pointer)
   0717 3E 01              1957 	ld	a,#0x01
   0719 12                 1958 	ld	(de),a
                           1959 ; genPlus
                           1960 ; genPlusIncr
   071A 11 2F 01           1961 	ld	de,#_Maze + 0 + 303
                           1962 ; genAssign (pointer)
   071D 3E 01              1963 	ld	a,#0x01
   071F 12                 1964 	ld	(de),a
                           1965 ; genPlus
                           1966 ; genPlusIncr
   0720 11 30 01           1967 	ld	de,#_Maze + 0 + 304
                           1968 ; genAssign (pointer)
   0723 3E 01              1969 	ld	a,#0x01
   0725 12                 1970 	ld	(de),a
                           1971 ; genPlus
                           1972 ; genPlusIncr
   0726 11 31 01           1973 	ld	de,#_Maze + 0 + 305
                           1974 ; genAssign (pointer)
   0729 3E 01              1975 	ld	a,#0x01
   072B 12                 1976 	ld	(de),a
                           1977 ; genPlus
                           1978 ; genPlusIncr
   072C 11 32 01           1979 	ld	de,#_Maze + 0 + 306
                           1980 ; genAssign (pointer)
   072F 3E 01              1981 	ld	a,#0x01
   0731 12                 1982 	ld	(de),a
                           1983 ; genPlus
                           1984 ; genPlusIncr
   0732 11 33 01           1985 	ld	de,#_Maze + 0 + 307
                           1986 ; genAssign (pointer)
   0735 3E 01              1987 	ld	a,#0x01
   0737 12                 1988 	ld	(de),a
                           1989 ; genPlus
                           1990 ; genPlusIncr
   0738 11 34 01           1991 	ld	de,#_Maze + 0 + 308
                           1992 ; genAssign (pointer)
   073B 3E 01              1993 	ld	a,#0x01
   073D 12                 1994 	ld	(de),a
                           1995 ; genPlus
                           1996 ; genPlusIncr
   073E 11 35 01           1997 	ld	de,#_Maze + 0 + 309
                           1998 ; genAssign (pointer)
   0741 3E 01              1999 	ld	a,#0x01
   0743 12                 2000 	ld	(de),a
                           2001 ; genPlus
                           2002 ; genPlusIncr
   0744 11 36 01           2003 	ld	de,#_Maze + 0 + 310
                           2004 ; genAssign (pointer)
   0747 3E 01              2005 	ld	a,#0x01
   0749 12                 2006 	ld	(de),a
                           2007 ; genPlus
                           2008 ; genPlusIncr
   074A 11 37 01           2009 	ld	de,#_Maze + 0 + 311
                           2010 ; genAssign (pointer)
   074D 3E 01              2011 	ld	a,#0x01
   074F 12                 2012 	ld	(de),a
                           2013 ; genPlus
                           2014 ; genPlusIncr
   0750 11 38 01           2015 	ld	de,#_Maze + 0 + 312
                           2016 ; genAssign (pointer)
   0753 3E 01              2017 	ld	a,#0x01
   0755 12                 2018 	ld	(de),a
                           2019 ; genPlus
                           2020 ; genPlusIncr
   0756 11 39 01           2021 	ld	de,#_Maze + 0 + 313
                           2022 ; genAssign (pointer)
   0759 3E 00              2023 	ld	a,#0x00
   075B 12                 2024 	ld	(de),a
                           2025 ; genPlus
                           2026 ; genPlusIncr
   075C 11 3A 01           2027 	ld	de,#_Maze + 0 + 314
                           2028 ; genAssign (pointer)
   075F 3E 01              2029 	ld	a,#0x01
   0761 12                 2030 	ld	(de),a
                           2031 ; genPlus
                           2032 ; genPlusIncr
   0762 11 3B 01           2033 	ld	de,#_Maze + 0 + 315
                           2034 ; genAssign (pointer)
   0765 3E 01              2035 	ld	a,#0x01
   0767 12                 2036 	ld	(de),a
                           2037 ; genPlus
                           2038 ; genPlusIncr
   0768 11 3C 01           2039 	ld	de,#_Maze + 0 + 316
                           2040 ; genAssign (pointer)
   076B 3E 01              2041 	ld	a,#0x01
   076D 12                 2042 	ld	(de),a
                           2043 ; genPlus
                           2044 ; genPlusIncr
   076E 11 3D 01           2045 	ld	de,#_Maze + 0 + 317
                           2046 ; genAssign (pointer)
   0771 3E 01              2047 	ld	a,#0x01
   0773 12                 2048 	ld	(de),a
                           2049 ; genPlus
                           2050 ; genPlusIncr
   0774 11 3E 01           2051 	ld	de,#_Maze + 0 + 318
                           2052 ; genAssign (pointer)
   0777 3E 01              2053 	ld	a,#0x01
   0779 12                 2054 	ld	(de),a
                           2055 ; genPlus
                           2056 ; genPlusIncr
   077A 11 3F 01           2057 	ld	de,#_Maze + 0 + 319
                           2058 ; genAssign (pointer)
   077D 3E 01              2059 	ld	a,#0x01
   077F 12                 2060 	ld	(de),a
                           2061 ; genPlus
                           2062 ; genPlusIncr
   0780 11 40 01           2063 	ld	de,#_Maze + 0 + 320
                           2064 ; genAssign (pointer)
   0783 3E 01              2065 	ld	a,#0x01
   0785 12                 2066 	ld	(de),a
                           2067 ; genPlus
                           2068 ; genPlusIncr
   0786 11 41 01           2069 	ld	de,#_Maze + 0 + 321
                           2070 ; genAssign (pointer)
   0789 3E 00              2071 	ld	a,#0x00
   078B 12                 2072 	ld	(de),a
                           2073 ; genPlus
                           2074 ; genPlusIncr
   078C 11 42 01           2075 	ld	de,#_Maze + 0 + 322
                           2076 ; genAssign (pointer)
   078F 3E 00              2077 	ld	a,#0x00
   0791 12                 2078 	ld	(de),a
                           2079 ; genPlus
                           2080 ; genPlusIncr
   0792 11 43 01           2081 	ld	de,#_Maze + 0 + 323
                           2082 ; genAssign (pointer)
   0795 3E 00              2083 	ld	a,#0x00
   0797 12                 2084 	ld	(de),a
                           2085 ; genPlus
                           2086 ; genPlusIncr
   0798 11 44 01           2087 	ld	de,#_Maze + 0 + 324
                           2088 ; genAssign (pointer)
   079B 3E 00              2089 	ld	a,#0x00
   079D 12                 2090 	ld	(de),a
                           2091 ; genPlus
                           2092 ; genPlusIncr
   079E 11 45 01           2093 	ld	de,#_Maze + 0 + 325
                           2094 ; genAssign (pointer)
   07A1 3E 00              2095 	ld	a,#0x00
   07A3 12                 2096 	ld	(de),a
                           2097 ; genPlus
                           2098 ; genPlusIncr
   07A4 11 46 01           2099 	ld	de,#_Maze + 0 + 326
                           2100 ; genAssign (pointer)
   07A7 3E 00              2101 	ld	a,#0x00
   07A9 12                 2102 	ld	(de),a
                           2103 ; genPlus
                           2104 ; genPlusIncr
   07AA 11 47 01           2105 	ld	de,#_Maze + 0 + 327
                           2106 ; genAssign (pointer)
   07AD 3E 00              2107 	ld	a,#0x00
   07AF 12                 2108 	ld	(de),a
                           2109 ; genPlus
                           2110 ; genPlusIncr
   07B0 11 48 01           2111 	ld	de,#_Maze + 0 + 328
                           2112 ; genAssign (pointer)
   07B3 3E 00              2113 	ld	a,#0x00
   07B5 12                 2114 	ld	(de),a
                           2115 ; genPlus
                           2116 ; genPlusIncr
   07B6 11 49 01           2117 	ld	de,#_Maze + 0 + 329
                           2118 ; genAssign (pointer)
   07B9 3E 00              2119 	ld	a,#0x00
   07BB 12                 2120 	ld	(de),a
                           2121 ; genPlus
                           2122 ; genPlusIncr
   07BC 11 4A 01           2123 	ld	de,#_Maze + 0 + 330
                           2124 ; genAssign (pointer)
   07BF 3E 00              2125 	ld	a,#0x00
   07C1 12                 2126 	ld	(de),a
                           2127 ; genPlus
                           2128 ; genPlusIncr
   07C2 11 4B 01           2129 	ld	de,#_Maze + 0 + 331
                           2130 ; genAssign (pointer)
   07C5 3E 00              2131 	ld	a,#0x00
   07C7 12                 2132 	ld	(de),a
                           2133 ; genPlus
                           2134 ; genPlusIncr
   07C8 11 4C 01           2135 	ld	de,#_Maze + 0 + 332
                           2136 ; genAssign (pointer)
   07CB 3E 00              2137 	ld	a,#0x00
   07CD 12                 2138 	ld	(de),a
                           2139 ; genPlus
                           2140 ; genPlusIncr
   07CE 11 4D 01           2141 	ld	de,#_Maze + 0 + 333
                           2142 ; genAssign (pointer)
   07D1 3E 00              2143 	ld	a,#0x00
   07D3 12                 2144 	ld	(de),a
                           2145 ; genPlus
                           2146 ; genPlusIncr
   07D4 11 4E 01           2147 	ld	de,#_Maze + 0 + 334
                           2148 ; genAssign (pointer)
   07D7 3E 00              2149 	ld	a,#0x00
   07D9 12                 2150 	ld	(de),a
                           2151 ; genPlus
                           2152 ; genPlusIncr
   07DA 11 4F 01           2153 	ld	de,#_Maze + 0 + 335
                           2154 ; genAssign (pointer)
   07DD 3E 00              2155 	ld	a,#0x00
   07DF 12                 2156 	ld	(de),a
                           2157 ; genPlus
                           2158 ; genPlusIncr
   07E0 11 50 01           2159 	ld	de,#_Maze + 0 + 336
                           2160 ; genAssign (pointer)
   07E3 3E 00              2161 	ld	a,#0x00
   07E5 12                 2162 	ld	(de),a
                           2163 ; genPlus
                           2164 ; genPlusIncr
   07E6 11 51 01           2165 	ld	de,#_Maze + 0 + 337
                           2166 ; genAssign (pointer)
   07E9 3E 00              2167 	ld	a,#0x00
   07EB 12                 2168 	ld	(de),a
                           2169 ; genPlus
                           2170 ; genPlusIncr
   07EC 11 52 01           2171 	ld	de,#_Maze + 0 + 338
                           2172 ; genAssign (pointer)
   07EF 3E 00              2173 	ld	a,#0x00
   07F1 12                 2174 	ld	(de),a
                           2175 ; genPlus
                           2176 ; genPlusIncr
   07F2 11 53 01           2177 	ld	de,#_Maze + 0 + 339
                           2178 ; genAssign (pointer)
   07F5 3E 01              2179 	ld	a,#0x01
   07F7 12                 2180 	ld	(de),a
                           2181 ; genPlus
                           2182 ; genPlusIncr
   07F8 11 54 01           2183 	ld	de,#_Maze + 0 + 340
                           2184 ; genAssign (pointer)
   07FB 3E 01              2185 	ld	a,#0x01
   07FD 12                 2186 	ld	(de),a
                           2187 ; genPlus
                           2188 ; genPlusIncr
   07FE 11 55 01           2189 	ld	de,#_Maze + 0 + 341
                           2190 ; genAssign (pointer)
   0801 3E 01              2191 	ld	a,#0x01
   0803 12                 2192 	ld	(de),a
                           2193 ; genPlus
                           2194 ; genPlusIncr
   0804 11 56 01           2195 	ld	de,#_Maze + 0 + 342
                           2196 ; genAssign (pointer)
   0807 3E 01              2197 	ld	a,#0x01
   0809 12                 2198 	ld	(de),a
                           2199 ; genPlus
                           2200 ; genPlusIncr
   080A 11 57 01           2201 	ld	de,#_Maze + 0 + 343
                           2202 ; genAssign (pointer)
   080D 3E 01              2203 	ld	a,#0x01
   080F 12                 2204 	ld	(de),a
                           2205 ; genPlus
                           2206 ; genPlusIncr
   0810 11 58 01           2207 	ld	de,#_Maze + 0 + 344
                           2208 ; genAssign (pointer)
   0813 3E 01              2209 	ld	a,#0x01
   0815 12                 2210 	ld	(de),a
                           2211 ; genPlus
                           2212 ; genPlusIncr
   0816 11 59 01           2213 	ld	de,#_Maze + 0 + 345
                           2214 ; genAssign (pointer)
   0819 3E 01              2215 	ld	a,#0x01
   081B 12                 2216 	ld	(de),a
                           2217 ; genPlus
                           2218 ; genPlusIncr
   081C 11 5A 01           2219 	ld	de,#_Maze + 0 + 346
                           2220 ; genAssign (pointer)
   081F 3E 01              2221 	ld	a,#0x01
   0821 12                 2222 	ld	(de),a
                           2223 ; genPlus
                           2224 ; genPlusIncr
   0822 11 5B 01           2225 	ld	de,#_Maze + 0 + 347
                           2226 ; genAssign (pointer)
   0825 3E 01              2227 	ld	a,#0x01
   0827 12                 2228 	ld	(de),a
                           2229 ; genPlus
                           2230 ; genPlusIncr
   0828 11 5C 01           2231 	ld	de,#_Maze + 0 + 348
                           2232 ; genAssign (pointer)
   082B 3E 01              2233 	ld	a,#0x01
   082D 12                 2234 	ld	(de),a
                           2235 ; genPlus
                           2236 ; genPlusIncr
   082E 11 5D 01           2237 	ld	de,#_Maze + 0 + 349
                           2238 ; genAssign (pointer)
   0831 3E 01              2239 	ld	a,#0x01
   0833 12                 2240 	ld	(de),a
                           2241 ; genPlus
                           2242 ; genPlusIncr
   0834 11 5E 01           2243 	ld	de,#_Maze + 0 + 350
                           2244 ; genAssign (pointer)
   0837 3E 01              2245 	ld	a,#0x01
   0839 12                 2246 	ld	(de),a
                           2247 ; genPlus
                           2248 ; genPlusIncr
   083A 11 5F 01           2249 	ld	de,#_Maze + 0 + 351
                           2250 ; genAssign (pointer)
   083D 3E 01              2251 	ld	a,#0x01
   083F 12                 2252 	ld	(de),a
                           2253 ; genPlus
                           2254 ; genPlusIncr
   0840 11 60 01           2255 	ld	de,#_Maze + 0 + 352
                           2256 ; genAssign (pointer)
   0843 3E 01              2257 	ld	a,#0x01
   0845 12                 2258 	ld	(de),a
                           2259 ; genPlus
                           2260 ; genPlusIncr
   0846 11 61 01           2261 	ld	de,#_Maze + 0 + 353
                           2262 ; genAssign (pointer)
   0849 3E 01              2263 	ld	a,#0x01
   084B 12                 2264 	ld	(de),a
                           2265 ; genPlus
                           2266 ; genPlusIncr
   084C 11 62 01           2267 	ld	de,#_Maze + 0 + 354
                           2268 ; genAssign (pointer)
   084F 3E 01              2269 	ld	a,#0x01
   0851 12                 2270 	ld	(de),a
                           2271 ; genPlus
                           2272 ; genPlusIncr
   0852 11 63 01           2273 	ld	de,#_Maze + 0 + 355
                           2274 ; genAssign (pointer)
   0855 3E 01              2275 	ld	a,#0x01
   0857 12                 2276 	ld	(de),a
                           2277 ; genPlus
                           2278 ; genPlusIncr
   0858 11 64 01           2279 	ld	de,#_Maze + 0 + 356
                           2280 ; genAssign (pointer)
   085B 3E 01              2281 	ld	a,#0x01
   085D 12                 2282 	ld	(de),a
                           2283 ; genPlus
                           2284 ; genPlusIncr
   085E 11 65 01           2285 	ld	de,#_Maze + 0 + 357
                           2286 ; genAssign (pointer)
   0861 3E 01              2287 	ld	a,#0x01
   0863 12                 2288 	ld	(de),a
                           2289 ; genPlus
                           2290 ; genPlusIncr
   0864 11 66 01           2291 	ld	de,#_Maze + 0 + 358
                           2292 ; genAssign (pointer)
   0867 3E 01              2293 	ld	a,#0x01
   0869 12                 2294 	ld	(de),a
                           2295 ; genPlus
                           2296 ; genPlusIncr
   086A 11 67 01           2297 	ld	de,#_Maze + 0 + 359
                           2298 ; genAssign (pointer)
   086D 3E 01              2299 	ld	a,#0x01
   086F 12                 2300 	ld	(de),a
                           2301 ;	main.c 154
                           2302 ; genAssign (pointer)
   0870 11 68 01           2303 	ld	de,#_PlayerCharacter + 0
   0873 3E 00              2304 	ld	a,#0x00
   0875 12                 2305 	ld	(de),a
                           2306 ; genPlus
                           2307 ; genPlusIncr
   0876 11 69 01           2308 	ld	de,#_PlayerCharacter + 0 + 1
                           2309 ; genAssign (pointer)
   0879 3E 00              2310 	ld	a,#0x00
   087B 12                 2311 	ld	(de),a
                           2312 ; genPlus
                           2313 ; genPlusIncr
   087C 11 6A 01           2314 	ld	de,#_PlayerCharacter + 0 + 2
                           2315 ; genAssign (pointer)
   087F 3E 00              2316 	ld	a,#0x00
   0881 12                 2317 	ld	(de),a
                           2318 ; genPlus
                           2319 ; genPlusIncr
   0882 11 6B 01           2320 	ld	de,#_PlayerCharacter + 0 + 3
                           2321 ; genAssign (pointer)
   0885 3E 00              2322 	ld	a,#0x00
   0887 12                 2323 	ld	(de),a
                           2324 ; genPlus
                           2325 ; genPlusIncr
   0888 11 6C 01           2326 	ld	de,#_PlayerCharacter + 0 + 4
                           2327 ; genAssign (pointer)
   088B 3E 00              2328 	ld	a,#0x00
   088D 12                 2329 	ld	(de),a
                           2330 ; genPlus
                           2331 ; genPlusIncr
   088E 11 6D 01           2332 	ld	de,#_PlayerCharacter + 0 + 5
                           2333 ; genAssign (pointer)
   0891 3E 00              2334 	ld	a,#0x00
   0893 12                 2335 	ld	(de),a
                           2336 ; genPlus
                           2337 ; genPlusIncr
   0894 11 6E 01           2338 	ld	de,#_PlayerCharacter + 0 + 6
                           2339 ; genAssign (pointer)
   0897 3E 00              2340 	ld	a,#0x00
   0899 12                 2341 	ld	(de),a
                           2342 ; genPlus
                           2343 ; genPlusIncr
   089A 11 6F 01           2344 	ld	de,#_PlayerCharacter + 0 + 7
                           2345 ; genAssign (pointer)
   089D 3E 00              2346 	ld	a,#0x00
   089F 12                 2347 	ld	(de),a
                           2348 ; genPlus
                           2349 ; genPlusIncr
   08A0 11 70 01           2350 	ld	de,#_PlayerCharacter + 0 + 8
                           2351 ; genAssign (pointer)
   08A3 3E 00              2352 	ld	a,#0x00
   08A5 12                 2353 	ld	(de),a
                           2354 ; genPlus
                           2355 ; genPlusIncr
   08A6 11 71 01           2356 	ld	de,#_PlayerCharacter + 0 + 9
                           2357 ; genAssign (pointer)
   08A9 3E 00              2358 	ld	a,#0x00
   08AB 12                 2359 	ld	(de),a
                           2360 ; genPlus
                           2361 ; genPlusIncr
   08AC 11 72 01           2362 	ld	de,#_PlayerCharacter + 0 + 10
                           2363 ; genAssign (pointer)
   08AF 3E 00              2364 	ld	a,#0x00
   08B1 12                 2365 	ld	(de),a
                           2366 ; genPlus
                           2367 ; genPlusIncr
   08B2 11 73 01           2368 	ld	de,#_PlayerCharacter + 0 + 11
                           2369 ; genAssign (pointer)
   08B5 3E 00              2370 	ld	a,#0x00
   08B7 12                 2371 	ld	(de),a
                           2372 ; genPlus
                           2373 ; genPlusIncr
   08B8 11 74 01           2374 	ld	de,#_PlayerCharacter + 0 + 12
                           2375 ; genAssign (pointer)
   08BB 3E 00              2376 	ld	a,#0x00
   08BD 12                 2377 	ld	(de),a
                           2378 ; genPlus
                           2379 ; genPlusIncr
   08BE 11 75 01           2380 	ld	de,#_PlayerCharacter + 0 + 13
                           2381 ; genAssign (pointer)
   08C1 3E 00              2382 	ld	a,#0x00
   08C3 12                 2383 	ld	(de),a
                           2384 ; genPlus
                           2385 ; genPlusIncr
   08C4 11 76 01           2386 	ld	de,#_PlayerCharacter + 0 + 14
                           2387 ; genAssign (pointer)
   08C7 3E 00              2388 	ld	a,#0x00
   08C9 12                 2389 	ld	(de),a
                           2390 ; genPlus
                           2391 ; genPlusIncr
   08CA 11 77 01           2392 	ld	de,#_PlayerCharacter + 0 + 15
                           2393 ; genAssign (pointer)
   08CD 3E 00              2394 	ld	a,#0x00
   08CF 12                 2395 	ld	(de),a
                           2396 ; genPlus
                           2397 ; genPlusIncr
   08D0 11 78 01           2398 	ld	de,#_PlayerCharacter + 0 + 16
                           2399 ; genAssign (pointer)
   08D3 3E 00              2400 	ld	a,#0x00
   08D5 12                 2401 	ld	(de),a
                           2402 ; genPlus
                           2403 ; genPlusIncr
   08D6 11 79 01           2404 	ld	de,#_PlayerCharacter + 0 + 17
                           2405 ; genAssign (pointer)
   08D9 3E 3C              2406 	ld	a,#0x3C
   08DB 12                 2407 	ld	(de),a
                           2408 ; genPlus
                           2409 ; genPlusIncr
   08DC 11 7A 01           2410 	ld	de,#_PlayerCharacter + 0 + 18
                           2411 ; genAssign (pointer)
   08DF 3E 00              2412 	ld	a,#0x00
   08E1 12                 2413 	ld	(de),a
                           2414 ; genPlus
                           2415 ; genPlusIncr
   08E2 11 7B 01           2416 	ld	de,#_PlayerCharacter + 0 + 19
                           2417 ; genAssign (pointer)
   08E5 3E 3E              2418 	ld	a,#0x3E
   08E7 12                 2419 	ld	(de),a
                           2420 ; genPlus
                           2421 ; genPlusIncr
   08E8 11 7C 01           2422 	ld	de,#_PlayerCharacter + 0 + 20
                           2423 ; genAssign (pointer)
   08EB 3E 3C              2424 	ld	a,#0x3C
   08ED 12                 2425 	ld	(de),a
                           2426 ; genPlus
                           2427 ; genPlusIncr
   08EE 11 7D 01           2428 	ld	de,#_PlayerCharacter + 0 + 21
                           2429 ; genAssign (pointer)
   08F1 3E 14              2430 	ld	a,#0x14
   08F3 12                 2431 	ld	(de),a
                           2432 ; genPlus
                           2433 ; genPlusIncr
   08F4 11 7E 01           2434 	ld	de,#_PlayerCharacter + 0 + 22
                           2435 ; genAssign (pointer)
   08F7 3E 3C              2436 	ld	a,#0x3C
   08F9 12                 2437 	ld	(de),a
                           2438 ; genPlus
                           2439 ; genPlusIncr
   08FA 11 7F 01           2440 	ld	de,#_PlayerCharacter + 0 + 23
                           2441 ; genAssign (pointer)
   08FD 3E 00              2442 	ld	a,#0x00
   08FF 12                 2443 	ld	(de),a
                           2444 ; genPlus
                           2445 ; genPlusIncr
   0900 11 80 01           2446 	ld	de,#_PlayerCharacter + 0 + 24
                           2447 ; genAssign (pointer)
   0903 3E A5              2448 	ld	a,#0xA5
   0905 12                 2449 	ld	(de),a
                           2450 ; genPlus
                           2451 ; genPlusIncr
   0906 11 81 01           2452 	ld	de,#_PlayerCharacter + 0 + 25
                           2453 ; genAssign (pointer)
   0909 3E 7E              2454 	ld	a,#0x7E
   090B 12                 2455 	ld	(de),a
                           2456 ; genPlus
                           2457 ; genPlusIncr
   090C 11 82 01           2458 	ld	de,#_PlayerCharacter + 0 + 26
                           2459 ; genAssign (pointer)
   090F 3E 3C              2460 	ld	a,#0x3C
   0911 12                 2461 	ld	(de),a
                           2462 ; genPlus
                           2463 ; genPlusIncr
   0912 11 83 01           2464 	ld	de,#_PlayerCharacter + 0 + 27
                           2465 ; genAssign (pointer)
   0915 3E 3C              2466 	ld	a,#0x3C
   0917 12                 2467 	ld	(de),a
                           2468 ; genPlus
                           2469 ; genPlusIncr
   0918 11 84 01           2470 	ld	de,#_PlayerCharacter + 0 + 28
                           2471 ; genAssign (pointer)
   091B 3E 3C              2472 	ld	a,#0x3C
   091D 12                 2473 	ld	(de),a
                           2474 ; genPlus
                           2475 ; genPlusIncr
   091E 11 85 01           2476 	ld	de,#_PlayerCharacter + 0 + 29
                           2477 ; genAssign (pointer)
   0921 3E 3C              2478 	ld	a,#0x3C
   0923 12                 2479 	ld	(de),a
                           2480 ; genPlus
                           2481 ; genPlusIncr
   0924 11 86 01           2482 	ld	de,#_PlayerCharacter + 0 + 30
                           2483 ; genAssign (pointer)
   0927 3E 00              2484 	ld	a,#0x00
   0929 12                 2485 	ld	(de),a
                           2486 ; genPlus
                           2487 ; genPlusIncr
   092A 11 87 01           2488 	ld	de,#_PlayerCharacter + 0 + 31
                           2489 ; genAssign (pointer)
   092D 3E 24              2490 	ld	a,#0x24
   092F 12                 2491 	ld	(de),a
                           2492 ; genPlus
                           2493 ; genPlusIncr
   0930 11 88 01           2494 	ld	de,#_PlayerCharacter + 0 + 32
                           2495 ; genAssign (pointer)
   0933 3E 00              2496 	ld	a,#0x00
   0935 12                 2497 	ld	(de),a
                           2498 ; genPlus
                           2499 ; genPlusIncr
   0936 11 89 01           2500 	ld	de,#_PlayerCharacter + 0 + 33
                           2501 ; genAssign (pointer)
   0939 3E 3C              2502 	ld	a,#0x3C
   093B 12                 2503 	ld	(de),a
                           2504 ; genPlus
                           2505 ; genPlusIncr
   093C 11 8A 01           2506 	ld	de,#_PlayerCharacter + 0 + 34
                           2507 ; genAssign (pointer)
   093F 3E 00              2508 	ld	a,#0x00
   0941 12                 2509 	ld	(de),a
                           2510 ; genPlus
                           2511 ; genPlusIncr
   0942 11 8B 01           2512 	ld	de,#_PlayerCharacter + 0 + 35
                           2513 ; genAssign (pointer)
   0945 3E 7C              2514 	ld	a,#0x7C
   0947 12                 2515 	ld	(de),a
                           2516 ; genPlus
                           2517 ; genPlusIncr
   0948 11 8C 01           2518 	ld	de,#_PlayerCharacter + 0 + 36
                           2519 ; genAssign (pointer)
   094B 3E 3C              2520 	ld	a,#0x3C
   094D 12                 2521 	ld	(de),a
                           2522 ; genPlus
                           2523 ; genPlusIncr
   094E 11 8D 01           2524 	ld	de,#_PlayerCharacter + 0 + 37
                           2525 ; genAssign (pointer)
   0951 3E 28              2526 	ld	a,#0x28
   0953 12                 2527 	ld	(de),a
                           2528 ; genPlus
                           2529 ; genPlusIncr
   0954 11 8E 01           2530 	ld	de,#_PlayerCharacter + 0 + 38
                           2531 ; genAssign (pointer)
   0957 3E 3C              2532 	ld	a,#0x3C
   0959 12                 2533 	ld	(de),a
                           2534 ; genPlus
                           2535 ; genPlusIncr
   095A 11 8F 01           2536 	ld	de,#_PlayerCharacter + 0 + 39
                           2537 ; genAssign (pointer)
   095D 3E 00              2538 	ld	a,#0x00
   095F 12                 2539 	ld	(de),a
                           2540 ; genPlus
                           2541 ; genPlusIncr
   0960 11 90 01           2542 	ld	de,#_PlayerCharacter + 0 + 40
                           2543 ; genAssign (pointer)
   0963 3E A5              2544 	ld	a,#0xA5
   0965 12                 2545 	ld	(de),a
                           2546 ; genPlus
                           2547 ; genPlusIncr
   0966 11 91 01           2548 	ld	de,#_PlayerCharacter + 0 + 41
                           2549 ; genAssign (pointer)
   0969 3E 7E              2550 	ld	a,#0x7E
   096B 12                 2551 	ld	(de),a
                           2552 ; genPlus
                           2553 ; genPlusIncr
   096C 11 92 01           2554 	ld	de,#_PlayerCharacter + 0 + 42
                           2555 ; genAssign (pointer)
   096F 3E 3C              2556 	ld	a,#0x3C
   0971 12                 2557 	ld	(de),a
                           2558 ; genPlus
                           2559 ; genPlusIncr
   0972 11 93 01           2560 	ld	de,#_PlayerCharacter + 0 + 43
                           2561 ; genAssign (pointer)
   0975 3E 3C              2562 	ld	a,#0x3C
   0977 12                 2563 	ld	(de),a
                           2564 ; genPlus
                           2565 ; genPlusIncr
   0978 11 94 01           2566 	ld	de,#_PlayerCharacter + 0 + 44
                           2567 ; genAssign (pointer)
   097B 3E 3C              2568 	ld	a,#0x3C
   097D 12                 2569 	ld	(de),a
                           2570 ; genPlus
                           2571 ; genPlusIncr
   097E 11 95 01           2572 	ld	de,#_PlayerCharacter + 0 + 45
                           2573 ; genAssign (pointer)
   0981 3E 3C              2574 	ld	a,#0x3C
   0983 12                 2575 	ld	(de),a
                           2576 ; genPlus
                           2577 ; genPlusIncr
   0984 11 96 01           2578 	ld	de,#_PlayerCharacter + 0 + 46
                           2579 ; genAssign (pointer)
   0987 3E 00              2580 	ld	a,#0x00
   0989 12                 2581 	ld	(de),a
                           2582 ; genPlus
                           2583 ; genPlusIncr
   098A 11 97 01           2584 	ld	de,#_PlayerCharacter + 0 + 47
                           2585 ; genAssign (pointer)
   098D 3E 24              2586 	ld	a,#0x24
   098F 12                 2587 	ld	(de),a
                           2588 ;	main.c 154
                           2589 ; genAssign (pointer)
   0990 11 98 01           2590 	ld	de,#_MazeTiles + 0
   0993 3E 00              2591 	ld	a,#0x00
   0995 12                 2592 	ld	(de),a
                           2593 ; genPlus
                           2594 ; genPlusIncr
   0996 11 99 01           2595 	ld	de,#_MazeTiles + 0 + 1
                           2596 ; genAssign (pointer)
   0999 3E 00              2597 	ld	a,#0x00
   099B 12                 2598 	ld	(de),a
                           2599 ; genPlus
                           2600 ; genPlusIncr
   099C 11 9A 01           2601 	ld	de,#_MazeTiles + 0 + 2
                           2602 ; genAssign (pointer)
   099F 3E 00              2603 	ld	a,#0x00
   09A1 12                 2604 	ld	(de),a
                           2605 ; genPlus
                           2606 ; genPlusIncr
   09A2 11 9B 01           2607 	ld	de,#_MazeTiles + 0 + 3
                           2608 ; genAssign (pointer)
   09A5 3E 00              2609 	ld	a,#0x00
   09A7 12                 2610 	ld	(de),a
                           2611 ; genPlus
                           2612 ; genPlusIncr
   09A8 11 9C 01           2613 	ld	de,#_MazeTiles + 0 + 4
                           2614 ; genAssign (pointer)
   09AB 3E 00              2615 	ld	a,#0x00
   09AD 12                 2616 	ld	(de),a
                           2617 ; genPlus
                           2618 ; genPlusIncr
   09AE 11 9D 01           2619 	ld	de,#_MazeTiles + 0 + 5
                           2620 ; genAssign (pointer)
   09B1 3E 00              2621 	ld	a,#0x00
   09B3 12                 2622 	ld	(de),a
                           2623 ; genPlus
                           2624 ; genPlusIncr
   09B4 11 9E 01           2625 	ld	de,#_MazeTiles + 0 + 6
                           2626 ; genAssign (pointer)
   09B7 3E 00              2627 	ld	a,#0x00
   09B9 12                 2628 	ld	(de),a
                           2629 ; genPlus
                           2630 ; genPlusIncr
   09BA 11 9F 01           2631 	ld	de,#_MazeTiles + 0 + 7
                           2632 ; genAssign (pointer)
   09BD 3E 00              2633 	ld	a,#0x00
   09BF 12                 2634 	ld	(de),a
                           2635 ; genPlus
                           2636 ; genPlusIncr
   09C0 11 A0 01           2637 	ld	de,#_MazeTiles + 0 + 8
                           2638 ; genAssign (pointer)
   09C3 3E 00              2639 	ld	a,#0x00
   09C5 12                 2640 	ld	(de),a
                           2641 ; genPlus
                           2642 ; genPlusIncr
   09C6 11 A1 01           2643 	ld	de,#_MazeTiles + 0 + 9
                           2644 ; genAssign (pointer)
   09C9 3E 00              2645 	ld	a,#0x00
   09CB 12                 2646 	ld	(de),a
                           2647 ; genPlus
                           2648 ; genPlusIncr
   09CC 11 A2 01           2649 	ld	de,#_MazeTiles + 0 + 10
                           2650 ; genAssign (pointer)
   09CF 3E 00              2651 	ld	a,#0x00
   09D1 12                 2652 	ld	(de),a
                           2653 ; genPlus
                           2654 ; genPlusIncr
   09D2 11 A3 01           2655 	ld	de,#_MazeTiles + 0 + 11
                           2656 ; genAssign (pointer)
   09D5 3E 00              2657 	ld	a,#0x00
   09D7 12                 2658 	ld	(de),a
                           2659 ; genPlus
                           2660 ; genPlusIncr
   09D8 11 A4 01           2661 	ld	de,#_MazeTiles + 0 + 12
                           2662 ; genAssign (pointer)
   09DB 3E 00              2663 	ld	a,#0x00
   09DD 12                 2664 	ld	(de),a
                           2665 ; genPlus
                           2666 ; genPlusIncr
   09DE 11 A5 01           2667 	ld	de,#_MazeTiles + 0 + 13
                           2668 ; genAssign (pointer)
   09E1 3E 00              2669 	ld	a,#0x00
   09E3 12                 2670 	ld	(de),a
                           2671 ; genPlus
                           2672 ; genPlusIncr
   09E4 11 A6 01           2673 	ld	de,#_MazeTiles + 0 + 14
                           2674 ; genAssign (pointer)
   09E7 3E 00              2675 	ld	a,#0x00
   09E9 12                 2676 	ld	(de),a
                           2677 ; genPlus
                           2678 ; genPlusIncr
   09EA 11 A7 01           2679 	ld	de,#_MazeTiles + 0 + 15
                           2680 ; genAssign (pointer)
   09ED 3E 00              2681 	ld	a,#0x00
   09EF 12                 2682 	ld	(de),a
                           2683 ; genPlus
                           2684 ; genPlusIncr
   09F0 11 A8 01           2685 	ld	de,#_MazeTiles + 0 + 16
                           2686 ; genAssign (pointer)
   09F3 3E 3C              2687 	ld	a,#0x3C
   09F5 12                 2688 	ld	(de),a
                           2689 ; genPlus
                           2690 ; genPlusIncr
   09F6 11 A9 01           2691 	ld	de,#_MazeTiles + 0 + 17
                           2692 ; genAssign (pointer)
   09F9 3E 7E              2693 	ld	a,#0x7E
   09FB 12                 2694 	ld	(de),a
                           2695 ; genPlus
                           2696 ; genPlusIncr
   09FC 11 AA 01           2697 	ld	de,#_MazeTiles + 0 + 18
                           2698 ; genAssign (pointer)
   09FF 3E 6E              2699 	ld	a,#0x6E
   0A01 12                 2700 	ld	(de),a
                           2701 ; genPlus
                           2702 ; genPlusIncr
   0A02 11 AB 01           2703 	ld	de,#_MazeTiles + 0 + 19
                           2704 ; genAssign (pointer)
   0A05 3E D3              2705 	ld	a,#0xD3
   0A07 12                 2706 	ld	(de),a
                           2707 ; genPlus
                           2708 ; genPlusIncr
   0A08 11 AC 01           2709 	ld	de,#_MazeTiles + 0 + 20
                           2710 ; genAssign (pointer)
   0A0B 3E F7              2711 	ld	a,#0xF7
   0A0D 12                 2712 	ld	(de),a
                           2713 ; genPlus
                           2714 ; genPlusIncr
   0A0E 11 AD 01           2715 	ld	de,#_MazeTiles + 0 + 21
                           2716 ; genAssign (pointer)
   0A11 3E AD              2717 	ld	a,#0xAD
   0A13 12                 2718 	ld	(de),a
                           2719 ; genPlus
                           2720 ; genPlusIncr
   0A14 11 AE 01           2721 	ld	de,#_MazeTiles + 0 + 22
                           2722 ; genAssign (pointer)
   0A17 3E B3              2723 	ld	a,#0xB3
   0A19 12                 2724 	ld	(de),a
                           2725 ; genPlus
                           2726 ; genPlusIncr
   0A1A 11 AF 01           2727 	ld	de,#_MazeTiles + 0 + 23
                           2728 ; genAssign (pointer)
   0A1D 3E DD              2729 	ld	a,#0xDD
   0A1F 12                 2730 	ld	(de),a
                           2731 ; genPlus
                           2732 ; genPlusIncr
   0A20 11 B0 01           2733 	ld	de,#_MazeTiles + 0 + 24
                           2734 ; genAssign (pointer)
   0A23 3E CD              2735 	ld	a,#0xCD
   0A25 12                 2736 	ld	(de),a
                           2737 ; genPlus
                           2738 ; genPlusIncr
   0A26 11 B1 01           2739 	ld	de,#_MazeTiles + 0 + 25
                           2740 ; genAssign (pointer)
   0A29 3E BB              2741 	ld	a,#0xBB
   0A2B 12                 2742 	ld	(de),a
                           2743 ; genPlus
                           2744 ; genPlusIncr
   0A2C 11 B2 01           2745 	ld	de,#_MazeTiles + 0 + 26
                           2746 ; genAssign (pointer)
   0A2F 3E EF              2747 	ld	a,#0xEF
   0A31 12                 2748 	ld	(de),a
                           2749 ; genPlus
                           2750 ; genPlusIncr
   0A32 11 B3 01           2751 	ld	de,#_MazeTiles + 0 + 27
                           2752 ; genAssign (pointer)
   0A35 3E B5              2753 	ld	a,#0xB5
   0A37 12                 2754 	ld	(de),a
                           2755 ; genPlus
                           2756 ; genPlusIncr
   0A38 11 B4 01           2757 	ld	de,#_MazeTiles + 0 + 28
                           2758 ; genAssign (pointer)
   0A3B 3E 76              2759 	ld	a,#0x76
   0A3D 12                 2760 	ld	(de),a
                           2761 ; genPlus
                           2762 ; genPlusIncr
   0A3E 11 B5 01           2763 	ld	de,#_MazeTiles + 0 + 29
                           2764 ; genAssign (pointer)
   0A41 3E CB              2765 	ld	a,#0xCB
   0A43 12                 2766 	ld	(de),a
                           2767 ; genPlus
                           2768 ; genPlusIncr
   0A44 11 B6 01           2769 	ld	de,#_MazeTiles + 0 + 30
                           2770 ; genAssign (pointer)
   0A47 3E 3C              2771 	ld	a,#0x3C
   0A49 12                 2772 	ld	(de),a
                           2773 ; genPlus
                           2774 ; genPlusIncr
   0A4A 11 B7 01           2775 	ld	de,#_MazeTiles + 0 + 31
                           2776 ; genAssign (pointer)
   0A4D 3E 7E              2777 	ld	a,#0x7E
   0A4F 12                 2778 	ld	(de),a
                           2779 ; genPlus
                           2780 ; genPlusIncr
   0A50 11 B8 01           2781 	ld	de,#_MazeTiles + 0 + 32
                           2782 ; genAssign (pointer)
   0A53 3E 18              2783 	ld	a,#0x18
   0A55 12                 2784 	ld	(de),a
                           2785 ; genPlus
                           2786 ; genPlusIncr
   0A56 11 B9 01           2787 	ld	de,#_MazeTiles + 0 + 33
                           2788 ; genAssign (pointer)
   0A59 3E 18              2789 	ld	a,#0x18
   0A5B 12                 2790 	ld	(de),a
                           2791 ; genPlus
                           2792 ; genPlusIncr
   0A5C 11 BA 01           2793 	ld	de,#_MazeTiles + 0 + 34
                           2794 ; genAssign (pointer)
   0A5F 3E 24              2795 	ld	a,#0x24
   0A61 12                 2796 	ld	(de),a
                           2797 ; genPlus
                           2798 ; genPlusIncr
   0A62 11 BB 01           2799 	ld	de,#_MazeTiles + 0 + 35
                           2800 ; genAssign (pointer)
   0A65 3E 3C              2801 	ld	a,#0x3C
   0A67 12                 2802 	ld	(de),a
                           2803 ; genPlus
                           2804 ; genPlusIncr
   0A68 11 BC 01           2805 	ld	de,#_MazeTiles + 0 + 36
                           2806 ; genAssign (pointer)
   0A6B 3E 24              2807 	ld	a,#0x24
   0A6D 12                 2808 	ld	(de),a
                           2809 ; genPlus
                           2810 ; genPlusIncr
   0A6E 11 BD 01           2811 	ld	de,#_MazeTiles + 0 + 37
                           2812 ; genAssign (pointer)
   0A71 3E 3C              2813 	ld	a,#0x3C
   0A73 12                 2814 	ld	(de),a
                           2815 ; genPlus
                           2816 ; genPlusIncr
   0A74 11 BE 01           2817 	ld	de,#_MazeTiles + 0 + 38
                           2818 ; genAssign (pointer)
   0A77 3E C3              2819 	ld	a,#0xC3
   0A79 12                 2820 	ld	(de),a
                           2821 ; genPlus
                           2822 ; genPlusIncr
   0A7A 11 BF 01           2823 	ld	de,#_MazeTiles + 0 + 39
                           2824 ; genAssign (pointer)
   0A7D 3E FF              2825 	ld	a,#0xFF
   0A7F 12                 2826 	ld	(de),a
                           2827 ; genPlus
                           2828 ; genPlusIncr
   0A80 11 C0 01           2829 	ld	de,#_MazeTiles + 0 + 40
                           2830 ; genAssign (pointer)
   0A83 3E 42              2831 	ld	a,#0x42
   0A85 12                 2832 	ld	(de),a
                           2833 ; genPlus
                           2834 ; genPlusIncr
   0A86 11 C1 01           2835 	ld	de,#_MazeTiles + 0 + 41
                           2836 ; genAssign (pointer)
   0A89 3E 7E              2837 	ld	a,#0x7E
   0A8B 12                 2838 	ld	(de),a
                           2839 ; genPlus
                           2840 ; genPlusIncr
   0A8C 11 C2 01           2841 	ld	de,#_MazeTiles + 0 + 42
                           2842 ; genAssign (pointer)
   0A8F 3E 24              2843 	ld	a,#0x24
   0A91 12                 2844 	ld	(de),a
                           2845 ; genPlus
                           2846 ; genPlusIncr
   0A92 11 C3 01           2847 	ld	de,#_MazeTiles + 0 + 43
                           2848 ; genAssign (pointer)
   0A95 3E 3C              2849 	ld	a,#0x3C
   0A97 12                 2850 	ld	(de),a
                           2851 ; genPlus
                           2852 ; genPlusIncr
   0A98 11 C4 01           2853 	ld	de,#_MazeTiles + 0 + 44
                           2854 ; genAssign (pointer)
   0A9B 3E 5A              2855 	ld	a,#0x5A
   0A9D 12                 2856 	ld	(de),a
                           2857 ; genPlus
                           2858 ; genPlusIncr
   0A9E 11 C5 01           2859 	ld	de,#_MazeTiles + 0 + 45
                           2860 ; genAssign (pointer)
   0AA1 3E 7E              2861 	ld	a,#0x7E
   0AA3 12                 2862 	ld	(de),a
                           2863 ; genPlus
                           2864 ; genPlusIncr
   0AA4 11 C6 01           2865 	ld	de,#_MazeTiles + 0 + 46
                           2866 ; genAssign (pointer)
   0AA7 3E 66              2867 	ld	a,#0x66
   0AA9 12                 2868 	ld	(de),a
                           2869 ; genPlus
                           2870 ; genPlusIncr
   0AAA 11 C7 01           2871 	ld	de,#_MazeTiles + 0 + 47
                           2872 ; genAssign (pointer)
   0AAD 3E 66              2873 	ld	a,#0x66
   0AAF 12                 2874 	ld	(de),a
                           2875 ;	main.c 154
                           2876 ; genAssign (pointer)
   0AB0 11 C8 01           2877 	ld	de,#_windowmap + 0
   0AB3 3E 13              2878 	ld	a,#0x13
   0AB5 12                 2879 	ld	(de),a
                           2880 ; genPlus
                           2881 ; genPlusIncr
   0AB6 11 C9 01           2882 	ld	de,#_windowmap + 0 + 1
                           2883 ; genAssign (pointer)
   0AB9 3E 10              2884 	ld	a,#0x10
   0ABB 12                 2885 	ld	(de),a
                           2886 ; genPlus
                           2887 ; genPlusIncr
   0ABC 11 CA 01           2888 	ld	de,#_windowmap + 0 + 2
                           2889 ; genAssign (pointer)
   0ABF 3E 17              2890 	ld	a,#0x17
   0AC1 12                 2891 	ld	(de),a
                           2892 ; genPlus
                           2893 ; genPlusIncr
   0AC2 11 CB 01           2894 	ld	de,#_windowmap + 0 + 3
                           2895 ; genAssign (pointer)
   0AC5 3E 17              2896 	ld	a,#0x17
   0AC7 12                 2897 	ld	(de),a
                           2898 ; genPlus
                           2899 ; genPlusIncr
   0AC8 11 CC 01           2900 	ld	de,#_windowmap + 0 + 4
                           2901 ; genAssign (pointer)
   0ACB 3E 1A              2902 	ld	a,#0x1A
   0ACD 12                 2903 	ld	(de),a
                           2904 ; genPlus
                           2905 ; genPlusIncr
   0ACE 11 CD 01           2906 	ld	de,#_windowmap + 0 + 5
                           2907 ; genAssign (pointer)
   0AD1 3E 00              2908 	ld	a,#0x00
   0AD3 12                 2909 	ld	(de),a
                           2910 ; genPlus
                           2911 ; genPlusIncr
   0AD4 11 CE 01           2912 	ld	de,#_windowmap + 0 + 6
                           2913 ; genAssign (pointer)
   0AD7 3E 22              2914 	ld	a,#0x22
   0AD9 12                 2915 	ld	(de),a
                           2916 ; genPlus
                           2917 ; genPlusIncr
   0ADA 11 CF 01           2918 	ld	de,#_windowmap + 0 + 7
                           2919 ; genAssign (pointer)
   0ADD 3E 1A              2920 	ld	a,#0x1A
   0ADF 12                 2921 	ld	(de),a
                           2922 ; genPlus
                           2923 ; genPlusIncr
   0AE0 11 D0 01           2924 	ld	de,#_windowmap + 0 + 8
                           2925 ; genAssign (pointer)
   0AE3 3E 1D              2926 	ld	a,#0x1D
   0AE5 12                 2927 	ld	(de),a
                           2928 ; genPlus
                           2929 ; genPlusIncr
   0AE6 11 D1 01           2930 	ld	de,#_windowmap + 0 + 9
                           2931 ; genAssign (pointer)
   0AE9 3E 17              2932 	ld	a,#0x17
   0AEB 12                 2933 	ld	(de),a
                           2934 ; genPlus
                           2935 ; genPlusIncr
   0AEC 11 D2 01           2936 	ld	de,#_windowmap + 0 + 10
                           2937 ; genAssign (pointer)
   0AEF 3E 0F              2938 	ld	a,#0x0F
   0AF1 12                 2939 	ld	(de),a
                           2940 ;	main.c 154
                           2941 ; genAssign
                           2942 ; AOP_HL for _score
   0AF2 21 D5 01           2943 	ld	hl,#_score + 0
   0AF5 36 00              2944 	ld	(hl),#0x00
                           2945 ;--------------------------------------------------------
                           2946 ; Home
                           2947 ;--------------------------------------------------------
                           2948 	.area _HOME
                           2949 	.area _CODE
                           2950 ;--------------------------------------------------------
                           2951 ; code
                           2952 ;--------------------------------------------------------
                           2953 	.area _CODE
                           2954 ;	main.c 20
                           2955 ; genLabel
                           2956 ; genFunction
                           2957 ;	---------------------------------
                           2958 ; Function _delay
                           2959 ; ---------------------------------
   0000                    2960 ____delay_start:
   0000                    2961 __delay:
   0000 C5                 2962 	push	bc
                           2963 	
                           2964 ;	main.c 22
                           2965 ; genAssign
   0001 0E 00              2966 	ld	c,#0x00
                           2967 ; genLabel
   0003                    2968 00101$:
                           2969 ; genCmpLt
                           2970 ; AOP_STK for 
   0003 AF                 2971 	xor	a,a
   0004 79                 2972 	ld	a,c
   0005 F8 04              2973 	lda	hl,4(sp)
   0007 9E                 2974 	sbc	a,(hl) ; 2
   0008 D2 12 00           2975 	jp	nc,00105$
                           2976 ;	main.c 23
                           2977 ; genCall
   000B CD 00 00           2978 	call	_wait_vbl_done
                           2979 ;	main.c 22
                           2980 ; genPlus
                           2981 ; genPlusIncr
   000E 0C                 2982 	inc	c
                           2983 ; genGoto
   000F C3 03 00           2984 	jp	00101$
                           2985 ; genLabel
   0012                    2986 00105$:
                           2987 ; genEndFunction
                           2988 	
   0012 C1                 2989 	pop	bc
   0013 C9                 2990 	ret
   0014                    2991 ____delay_end:
                           2992 ;	main.c 27
                           2993 ; genLabel
                           2994 ; genFunction
                           2995 ;	---------------------------------
                           2996 ; Function checkcollision
                           2997 ; ---------------------------------
   0014                    2998 ___checkcollision_start:
   0014                    2999 _checkcollision:
   0014 C5                 3000 	push	bc
   0015 E8 FD              3001 	lda	sp,-3(sp)
                           3002 ;	main.c 31
                           3003 ; genMinus
                           3004 ; AOP_STK for 
   0017 F8 07              3005 	lda	hl,7(sp)
   0019 7E                 3006 	ld	a,(hl)
   001A C6 F8              3007 	add	a,#0xF8
   001C 4F                 3008 	ld	c,a
                           3009 ; genRightShift
                           3010 ; shift right 	result 1, left 1
                           3011 ; Removed redundent load
   001D CB 39              3012 	srl	c
   001F CB 39              3013 	srl	c
   0021 CB 39              3014 	srl	c
                           3015 ; genCast
                           3016 ; AOP_STK for _checkcollision_indexTopLeftX_1_1
   0023 F8 01              3017 	lda	hl,1(sp)
   0025 71                 3018 	ld	(hl),c
   0026 23                 3019 	inc	hl
   0027 36 00              3020 	ld	(hl),#0x00
                           3021 ;	main.c 32
                           3022 ; genMinus
                           3023 ; AOP_STK for 
   0029 F8 08              3024 	lda	hl,8(sp)
   002B 7E                 3025 	ld	a,(hl)
   002C C6 F0              3026 	add	a,#0xF0
   002E 4F                 3027 	ld	c,a
                           3028 ; genRightShift
                           3029 ; shift right 	result 1, left 1
                           3030 ; Removed redundent load
   002F CB 39              3031 	srl	c
   0031 CB 39              3032 	srl	c
   0033 CB 39              3033 	srl	c
                           3034 ; genCast
                           3035 ; Removed redundent load
   0035 06 00              3036 	ld	b,#0x00
                           3037 ;	main.c 33
                           3038 ; genIpush
   0037 21 14 00           3039 	ld	hl,#0x0014
   003A E5                 3040 	push	hl
                           3041 ; genIpush
   003B C5                 3042 	push	bc
                           3043 ; genCall
   003C CD 00 00           3044 	call	__muluint
   003F 42                 3045 	ld	b,d
   0040 4B                 3046 	ld	c,e
   0041 E8 04              3047 	lda	sp,4(sp)
                           3048 ; genPlus
                           3049 ; AOP_STK for _checkcollision_indexTopLeftX_1_1
                           3050 ;	genPlusIncr failed
   0043 F8 01              3051 	lda	hl,1(sp)
   0045 2A                 3052 	ld	a,(hl+)
   0046 66                 3053 	ld	h,(hl)
   0047 6F                 3054 	ld	l,a
   0048 09                 3055 	add	hl,bc
   0049 4D                 3056 	ld	c,l
   004A 44                 3057 	ld	b,h
                           3058 ;	main.c 35
                           3059 ; genPlus
                           3060 ;	genPlusIncr failed
   004B 3E 00              3061 	ld	a,#<_Maze
   004D 81                 3062 	add	a,c
   004E 4F                 3063 	ld	c,a
   004F 3E 00              3064 	ld	a,#>_Maze
   0051 88                 3065 	adc	a,b
   0052 47                 3066 	ld	b,a
                           3067 ; genPointerGet
                           3068 ; AOP_STK for _checkcollision_Result_1_1
   0053 0A                 3069 	ld	a,(bc)
   0054 F8 00              3070 	lda	hl,0(sp)
   0056 77                 3071 	ld	(hl),a
                           3072 ;	main.c 37
                           3073 ; genCmpEq
                           3074 ; AOP_STK for _checkcollision_Result_1_1
   0057 7E                 3075 	ld	a,(hl) ; 2
   0058 FE 02              3076 	cp	a,#0x02
   005A C2 5F 00           3077 	jp	nz,00106$
   005D 18 03              3078 	jr	00107$
   005F                    3079 00106$:
   005F C3 82 00           3080 	jp	00102$
   0062                    3081 00107$:
                           3082 ;	main.c 38
                           3083 ; genAssign (pointer)
   0062 3E 00              3084 	ld	a,#0x00
   0064 02                 3085 	ld	(bc),a
                           3086 ;	main.c 39
                           3087 ; genIpush
   0065 21 00 00           3088 	ld	hl,#_Maze + 0
   0068 E5                 3089 	push	hl
                           3090 ; genIpush
   0069 3E 12              3091 	ld	a,#0x12
   006B F5                 3092 	push	af
   006C 33                 3093 	inc	sp
                           3094 ; genIpush
   006D 3E 14              3095 	ld	a,#0x14
   006F F5                 3096 	push	af
   0070 33                 3097 	inc	sp
                           3098 ; genIpush
   0071 3E 00              3099 	ld	a,#0x00
   0073 F5                 3100 	push	af
   0074 33                 3101 	inc	sp
                           3102 ; genIpush
   0075 3E 00              3103 	ld	a,#0x00
   0077 F5                 3104 	push	af
   0078 33                 3105 	inc	sp
                           3106 ; genCall
   0079 CD 00 00           3107 	call	_set_bkg_tiles
   007C E8 06              3108 	lda	sp,6(sp)
                           3109 ;	main.c 40
                           3110 ; genPlus
                           3111 ; AOP_HL for _score
                           3112 ; genPlusIncr
   007E 21 D5 01           3113 	ld	hl,#_score + 0
   0081 34                 3114 	inc	(hl)
                           3115 ; genLabel
   0082                    3116 00102$:
                           3117 ;	main.c 43
                           3118 ; genRet
                           3119 ; AOP_STK for _checkcollision_Result_1_1
   0082 F8 00              3120 	lda	hl,0(sp)
   0084 5E                 3121 	ld	e,(hl)
                           3122 ; genLabel
   0085                    3123 00103$:
                           3124 ; genEndFunction
   0085 E8 03              3125 	lda	sp,3(sp)
   0087 C1                 3126 	pop	bc
   0088 C9                 3127 	ret
   0089                    3128 ___checkcollision_end:
                           3129 ;	main.c 46
                           3130 ; genLabel
                           3131 ; genFunction
                           3132 ;	---------------------------------
                           3133 ; Function main
                           3134 ; ---------------------------------
   0089                    3135 ___main_start:
   0089                    3136 _main:
   0089 C5                 3137 	push	bc
   008A E8 A3              3138 	lda	sp,-93(sp)
                           3139 ;	main.c 48
                           3140 ; genOr
                           3141 ; AOP_SFR for _LCDC_REG
                           3142 ; Type res[4] = l[4]&r[1]
                           3143 ; Size res[1] = l[1]&r[1]
   008C F0 00              3144 	ldh	a,(_LCDC_REG+0) ; x
   008E F6 80              3145 	or	a,#0x80
   0090 E0 00              3146 	ldh	(_LCDC_REG+0),a
                           3147 ;	main.c 50
                           3148 ; genLabel
   0092                    3149 00151$:
                           3150 ;	main.c 51
                           3151 ; genAssign
                           3152 ; AOP_HL for _score
   0092 21 D5 01           3153 	ld	hl,#_score + 0
   0095 36 00              3154 	ld	(hl),#0x00
                           3155 ;	main.c 53
                           3156 ; genIpush
   0097 21 98 01           3157 	ld	hl,#_MazeTiles + 0
   009A E5                 3158 	push	hl
                           3159 ; genIpush
   009B 3E 03              3160 	ld	a,#0x03
   009D F5                 3161 	push	af
   009E 33                 3162 	inc	sp
                           3163 ; genIpush
   009F 3E 00              3164 	ld	a,#0x00
   00A1 F5                 3165 	push	af
   00A2 33                 3166 	inc	sp
                           3167 ; genCall
   00A3 CD 00 00           3168 	call	_set_bkg_data
   00A6 E8 04              3169 	lda	sp,4(sp)
                           3170 ;	main.c 54
                           3171 ; genIpush
   00A8 21 00 00           3172 	ld	hl,#_Maze + 0
   00AB E5                 3173 	push	hl
                           3174 ; genIpush
   00AC 3E 12              3175 	ld	a,#0x12
   00AE F5                 3176 	push	af
   00AF 33                 3177 	inc	sp
                           3178 ; genIpush
   00B0 3E 14              3179 	ld	a,#0x14
   00B2 F5                 3180 	push	af
   00B3 33                 3181 	inc	sp
                           3182 ; genIpush
   00B4 3E 00              3183 	ld	a,#0x00
   00B6 F5                 3184 	push	af
   00B7 33                 3185 	inc	sp
                           3186 ; genIpush
   00B8 3E 00              3187 	ld	a,#0x00
   00BA F5                 3188 	push	af
   00BB 33                 3189 	inc	sp
                           3190 ; genCall
   00BC CD 00 00           3191 	call	_set_bkg_tiles
   00BF E8 06              3192 	lda	sp,6(sp)
                           3193 ;	main.c 56
                           3194 ; genIpush
   00C1 21 68 01           3195 	ld	hl,#_PlayerCharacter + 0
   00C4 E5                 3196 	push	hl
                           3197 ; genIpush
   00C5 3E 03              3198 	ld	a,#0x03
   00C7 F5                 3199 	push	af
   00C8 33                 3200 	inc	sp
                           3201 ; genIpush
   00C9 3E 00              3202 	ld	a,#0x00
   00CB F5                 3203 	push	af
   00CC 33                 3204 	inc	sp
                           3205 ; genCall
   00CD CD 00 00           3206 	call	_set_sprite_data
   00D0 E8 04              3207 	lda	sp,4(sp)
                           3208 ;	main.c 57
                           3209 ; genIpush
   00D2 3E 02              3210 	ld	a,#0x02
   00D4 F5                 3211 	push	af
   00D5 33                 3212 	inc	sp
                           3213 ; genIpush
   00D6 3E 00              3214 	ld	a,#0x00
   00D8 F5                 3215 	push	af
   00D9 33                 3216 	inc	sp
                           3217 ; genCall
   00DA CD 00 00           3218 	call	_set_sprite_tile
   00DD E8 02              3219 	lda	sp,2(sp)
                           3220 ;	main.c 59
                           3221 ; genAssign (pointer)
   00DF 11 D3 01           3222 	ld	de,#_playerlocation + 0
   00E2 3E 98              3223 	ld	a,#0x98
   00E4 12                 3224 	ld	(de),a
                           3225 ;	main.c 60
                           3226 ; genPlus
                           3227 ; AOP_STK for _main_sloc1_1_0
                           3228 ; genPlusIncr
                           3229 ;	genPlusIncr failed
   00E5 11 D3 01           3230 	ld	de,#_playerlocation + 0
   00E8 21 01 00           3231 	ld	hl,#0x0001
   00EB 19                 3232 	add	hl,de
   00EC 7D                 3233 	ld	a,l
   00ED 54                 3234 	ld	d,h
   00EE F8 5A              3235 	lda	hl,90(sp)
   00F0 22                 3236 	ld	(hl+),a
   00F1 72                 3237 	ld	(hl),d
                           3238 ; genAssign (pointer)
                           3239 ; AOP_STK for _main_sloc1_1_0
   00F2 2B                 3240 	dec	hl
   00F3 5E                 3241 	ld	e,(hl)
   00F4 23                 3242 	inc	hl
   00F5 56                 3243 	ld	d,(hl)
   00F6 3E 90              3244 	ld	a,#0x90
   00F8 12                 3245 	ld	(de),a
                           3246 ;	main.c 62
                           3247 ; genPointerGet
                           3248 ; AOP_STK for _main_sloc1_1_0
                           3249 ; AOP_STK for _main_sloc0_1_0
   00F9 2B                 3250 	dec	hl
   00FA 5E                 3251 	ld	e,(hl)
   00FB 23                 3252 	inc	hl
   00FC 56                 3253 	ld	d,(hl)
   00FD 1A                 3254 	ld	a,(de)
   00FE 23                 3255 	inc	hl
   00FF 77                 3256 	ld	(hl),a
                           3257 ; genPointerGet
   0100 11 D3 01           3258 	ld	de,#_playerlocation + 0
   0103 1A                 3259 	ld	a,(de)
   0104 4F                 3260 	ld	c,a
                           3261 ; genIpush
                           3262 ; AOP_STK for _main_sloc0_1_0
   0105 7E                 3263 	ld	a,(hl)
   0106 F5                 3264 	push	af
   0107 33                 3265 	inc	sp
                           3266 ; genIpush
   0108 79                 3267 	ld	a,c
   0109 F5                 3268 	push	af
   010A 33                 3269 	inc	sp
                           3270 ; genIpush
   010B 3E 00              3271 	ld	a,#0x00
   010D F5                 3272 	push	af
   010E 33                 3273 	inc	sp
                           3274 ; genCall
   010F CD 00 00           3275 	call	_move_sprite
   0112 E8 03              3276 	lda	sp,3(sp)
                           3277 ;	main.c 64
                           3278 ; genOr
                           3279 ; AOP_SFR for _LCDC_REG
                           3280 ; Type res[4] = l[4]&r[1]
                           3281 ; Size res[1] = l[1]&r[1]
   0114 F0 00              3282 	ldh	a,(_LCDC_REG+0) ; x
   0116 F6 02              3283 	or	a,#0x02
   0118 E0 00              3284 	ldh	(_LCDC_REG+0),a
                           3285 ;	main.c 65
                           3286 ; genOr
                           3287 ; AOP_SFR for _LCDC_REG
                           3288 ; Type res[4] = l[4]&r[1]
                           3289 ; Size res[1] = l[1]&r[1]
   011A F0 00              3290 	ldh	a,(_LCDC_REG+0) ; x
   011C F6 01              3291 	or	a,#0x01
   011E E0 00              3292 	ldh	(_LCDC_REG+0),a
                           3293 ;	main.c 67
                           3294 ; genLabel
   0120                    3295 00144$:
                           3296 ; genCmpLt
                           3297 ; AOP_HL for _score
                           3298 ; AOP_STK for _main_sloc0_1_0
   0120 21 D5 01           3299 	ld	hl,#_score + 0
   0123 7E                 3300 	ld	a,(hl)
   0124 FE 03              3301 	cp	#0x03
   0126 3E 00              3302 	ld	a,#0x00
   0128 17                 3303 	rla
   0129 F8 5C              3304 	lda	hl,92(sp)
   012B 77                 3305 	ld	(hl),a
                           3306 ; genIfx
                           3307 ; AOP_STK for _main_sloc0_1_0
                           3308 ; Removed redundent or a,a
   012C AF                 3309 	xor	a,a
   012D B6                 3310 	or	a,(hl)
   012E CA AD 05           3311 	jp	z,00146$
                           3312 ;	main.c 68
                           3313 ; genCall
   0131 CD 00 00           3314 	call	_joypad
                           3315 ; AOP_STK for _main_sloc4_1_0
   0134 F8 57              3316 	lda	hl,87(sp)
   0136 73                 3317 	ld	(hl),e
                           3318 ; genAnd
                           3319 ; AOP_STK for _main_sloc4_1_0
                           3320 ; AOP_STK for _main_sloc2_1_0
   0137 7E                 3321 	ld	a,(hl)
   0138 E6 02              3322 	and	a,#0x02
   013A 23                 3323 	inc	hl
   013B 23                 3324 	inc	hl
   013C 77                 3325 	ld	(hl),a
                           3326 ; genIfx
                           3327 ; AOP_STK for _main_sloc2_1_0
                           3328 ; Removed redundent or a,a
   013D AF                 3329 	xor	a,a
   013E B6                 3330 	or	a,(hl)
   013F CA 56 02           3331 	jp	z,00142$
                           3332 ;	main.c 69
                           3333 ; genIpush
   0142 3E 02              3334 	ld	a,#0x02
   0144 F5                 3335 	push	af
   0145 33                 3336 	inc	sp
                           3337 ; genIpush
   0146 3E 00              3338 	ld	a,#0x00
   0148 F5                 3339 	push	af
   0149 33                 3340 	inc	sp
                           3341 ; genCall
   014A CD 00 00           3342 	call	_set_sprite_tile
   014D E8 02              3343 	lda	sp,2(sp)
                           3344 ;	main.c 70
                           3345 ; genPointerGet
                           3346 ; AOP_STK for _main_sloc1_1_0
                           3347 ; AOP_STK for _main_sloc3_1_0
   014F F8 5A              3348 	lda	hl,90(sp)
   0151 5E                 3349 	ld	e,(hl)
   0152 23                 3350 	inc	hl
   0153 56                 3351 	ld	d,(hl)
   0154 1A                 3352 	ld	a,(de)
   0155 F8 58              3353 	lda	hl,88(sp)
   0157 77                 3354 	ld	(hl),a
                           3355 ; genPointerGet
                           3356 ; AOP_STK for _main_sloc6_1_0
   0158 11 D3 01           3357 	ld	de,#_playerlocation + 0
   015B 1A                 3358 	ld	a,(de)
   015C F8 55              3359 	lda	hl,85(sp)
   015E 77                 3360 	ld	(hl),a
                           3361 ; genMinus
                           3362 ; AOP_STK for _main_sloc6_1_0
                           3363 ; AOP_STK for _main_sloc5_1_0
   015F 7E                 3364 	ld	a,(hl)
   0160 C6 F8              3365 	add	a,#0xF8
   0162 23                 3366 	inc	hl
                           3367 ; genIpush
                           3368 ; AOP_STK for _main_sloc3_1_0
   0163 22                 3369 	ld	(hl+),a
   0164 23                 3370 	inc	hl
   0165 7E                 3371 	ld	a,(hl)
   0166 F5                 3372 	push	af
   0167 33                 3373 	inc	sp
                           3374 ; genIpush
                           3375 ; AOP_STK for _main_sloc5_1_0
   0168 2B                 3376 	dec	hl
   0169 2B                 3377 	dec	hl
   016A 7E                 3378 	ld	a,(hl)
   016B F5                 3379 	push	af
   016C 33                 3380 	inc	sp
                           3381 ; genCall
   016D CD 14 00           3382 	call	_checkcollision
                           3383 ; AOP_STK for _main_sloc8_1_0
   0170 F8 55              3384 	lda	hl,85(sp)
   0172 73                 3385 	ld	(hl),e
   0173 E8 02              3386 	lda	sp,2(sp)
                           3387 ; genCmpEq
                           3388 ; AOP_STK for _main_sloc8_1_0
                           3389 ; AOP_STK for _main_sloc7_1_0
   0175 7E                 3390 	ld	a,(hl)
   0176 B7                 3391 	or	a,a
   0177 C2 7E 01           3392 	jp	nz,00176$
   017A 3E 01              3393 	ld	a,#0x01
   017C 18 01              3394 	jr	00177$
   017E                    3395 00176$:
   017E AF                 3396 	xor	a,a
   017F                    3397 00177$:
   017F F8 54              3398 	lda	hl,84(sp)
   0181 77                 3399 	ld	(hl),a
                           3400 ; genIfx
                           3401 ; AOP_STK for _main_sloc7_1_0
                           3402 ; Removed redundent or a,a
   0182 AF                 3403 	xor	a,a
   0183 B6                 3404 	or	a,(hl)
   0184 CA B6 01           3405 	jp	z,00107$
                           3406 ;	main.c 71
                           3407 ; genPointerGet
                           3408 ; AOP_STK for _main_sloc9_1_0
   0187 11 D3 01           3409 	ld	de,#_playerlocation + 0
   018A 1A                 3410 	ld	a,(de)
   018B 2B                 3411 	dec	hl
   018C 2B                 3412 	dec	hl
   018D 77                 3413 	ld	(hl),a
                           3414 ; genMinus
                           3415 ; AOP_STK for _main_sloc9_1_0
                           3416 ; AOP_STK for _main_sloc12_1_0
   018E 7E                 3417 	ld	a,(hl)
   018F C6 F8              3418 	add	a,#0xF8
   0191 F8 4F              3419 	lda	hl,79(sp)
   0193 77                 3420 	ld	(hl),a
                           3421 ; genAssign (pointer)
                           3422 ; AOP_STK for _main_sloc12_1_0
   0194 11 D3 01           3423 	ld	de,#_playerlocation + 0
   0197 7E                 3424 	ld	a,(hl)
   0198 12                 3425 	ld	(de),a
                           3426 ;	main.c 72
                           3427 ; genPointerGet
                           3428 ; AOP_STK for _main_sloc1_1_0
                           3429 ; AOP_STK for _main_sloc10_1_0
   0199 F8 5A              3430 	lda	hl,90(sp)
   019B 5E                 3431 	ld	e,(hl)
   019C 23                 3432 	inc	hl
   019D 56                 3433 	ld	d,(hl)
   019E 1A                 3434 	ld	a,(de)
   019F F8 51              3435 	lda	hl,81(sp)
   01A1 77                 3436 	ld	(hl),a
                           3437 ; genIpush
                           3438 ; AOP_STK for _main_sloc10_1_0
   01A2 7E                 3439 	ld	a,(hl)
   01A3 F5                 3440 	push	af
   01A4 33                 3441 	inc	sp
                           3442 ; genIpush
                           3443 ; AOP_STK for _main_sloc12_1_0
   01A5 2B                 3444 	dec	hl
   01A6 2B                 3445 	dec	hl
   01A7 7E                 3446 	ld	a,(hl)
   01A8 F5                 3447 	push	af
   01A9 33                 3448 	inc	sp
                           3449 ; genIpush
   01AA 3E 00              3450 	ld	a,#0x00
   01AC F5                 3451 	push	af
   01AD 33                 3452 	inc	sp
                           3453 ; genCall
   01AE CD 00 00           3454 	call	_move_sprite
   01B1 E8 03              3455 	lda	sp,3(sp)
                           3456 ; genGoto
   01B3 C3 A1 05           3457 	jp	00143$
                           3458 ; genLabel
   01B6                    3459 00107$:
                           3460 ;	main.c 75
                           3461 ; genPointerGet
                           3462 ; AOP_STK for _main_sloc1_1_0
                           3463 ; AOP_STK for _main_sloc11_1_0
   01B6 F8 5A              3464 	lda	hl,90(sp)
   01B8 5E                 3465 	ld	e,(hl)
   01B9 23                 3466 	inc	hl
   01BA 56                 3467 	ld	d,(hl)
   01BB 1A                 3468 	ld	a,(de)
   01BC F8 50              3469 	lda	hl,80(sp)
   01BE 77                 3470 	ld	(hl),a
                           3471 ; genPointerGet
                           3472 ; AOP_STK for _main_sloc14_1_0
   01BF 11 D3 01           3473 	ld	de,#_playerlocation + 0
   01C2 1A                 3474 	ld	a,(de)
   01C3 F8 4D              3475 	lda	hl,77(sp)
   01C5 77                 3476 	ld	(hl),a
                           3477 ; genMinus
                           3478 ; AOP_STK for _main_sloc14_1_0
                           3479 ; AOP_STK for _main_sloc13_1_0
   01C6 7E                 3480 	ld	a,(hl)
   01C7 C6 F8              3481 	add	a,#0xF8
   01C9 23                 3482 	inc	hl
                           3483 ; genIpush
                           3484 ; AOP_STK for _main_sloc11_1_0
   01CA 22                 3485 	ld	(hl+),a
   01CB 23                 3486 	inc	hl
   01CC 7E                 3487 	ld	a,(hl)
   01CD F5                 3488 	push	af
   01CE 33                 3489 	inc	sp
                           3490 ; genIpush
                           3491 ; AOP_STK for _main_sloc13_1_0
   01CF 2B                 3492 	dec	hl
   01D0 2B                 3493 	dec	hl
   01D1 7E                 3494 	ld	a,(hl)
   01D2 F5                 3495 	push	af
   01D3 33                 3496 	inc	sp
                           3497 ; genCall
   01D4 CD 14 00           3498 	call	_checkcollision
                           3499 ; AOP_STK for _main_sloc17_1_0
   01D7 F8 4C              3500 	lda	hl,76(sp)
   01D9 73                 3501 	ld	(hl),e
   01DA E8 02              3502 	lda	sp,2(sp)
                           3503 ; genCmpEq
                           3504 ; AOP_STK for _main_sloc17_1_0
                           3505 ; AOP_STK for _main_sloc15_1_0
   01DC 7E                 3506 	ld	a,(hl) ; 2
   01DD FE 01              3507 	cp	a,#0x01
   01DF C2 E6 01           3508 	jp	nz,00178$
   01E2 3E 01              3509 	ld	a,#0x01
   01E4 18 01              3510 	jr	00179$
   01E6                    3511 00178$:
   01E6 AF                 3512 	xor	a,a
   01E7                    3513 00179$:
   01E7 F8 4C              3514 	lda	hl,76(sp)
   01E9 77                 3515 	ld	(hl),a
                           3516 ; genIfx
                           3517 ; AOP_STK for _main_sloc15_1_0
                           3518 ; Removed redundent or a,a
   01EA AF                 3519 	xor	a,a
   01EB B6                 3520 	or	a,(hl)
   01EC C2 A1 05           3521 	jp	nz,00143$
                           3522 ;	main.c 79
                           3523 ; genPointerGet
                           3524 ; AOP_STK for _main_sloc1_1_0
                           3525 ; AOP_STK for _main_sloc16_1_0
   01EF F8 5A              3526 	lda	hl,90(sp)
   01F1 5E                 3527 	ld	e,(hl)
   01F2 23                 3528 	inc	hl
   01F3 56                 3529 	ld	d,(hl)
   01F4 1A                 3530 	ld	a,(de)
   01F5 F8 4B              3531 	lda	hl,75(sp)
   01F7 77                 3532 	ld	(hl),a
                           3533 ; genPointerGet
                           3534 ; AOP_STK for _main_sloc19_1_0
   01F8 11 D3 01           3535 	ld	de,#_playerlocation + 0
   01FB 1A                 3536 	ld	a,(de)
   01FC F8 48              3537 	lda	hl,72(sp)
   01FE 77                 3538 	ld	(hl),a
                           3539 ; genMinus
                           3540 ; AOP_STK for _main_sloc19_1_0
                           3541 ; AOP_STK for _main_sloc18_1_0
   01FF 7E                 3542 	ld	a,(hl)
   0200 C6 F8              3543 	add	a,#0xF8
   0202 23                 3544 	inc	hl
                           3545 ; genIpush
                           3546 ; AOP_STK for _main_sloc16_1_0
   0203 22                 3547 	ld	(hl+),a
   0204 23                 3548 	inc	hl
   0205 7E                 3549 	ld	a,(hl)
   0206 F5                 3550 	push	af
   0207 33                 3551 	inc	sp
                           3552 ; genIpush
                           3553 ; AOP_STK for _main_sloc18_1_0
   0208 2B                 3554 	dec	hl
   0209 2B                 3555 	dec	hl
   020A 7E                 3556 	ld	a,(hl)
   020B F5                 3557 	push	af
   020C 33                 3558 	inc	sp
                           3559 ; genCall
   020D CD 14 00           3560 	call	_checkcollision
                           3561 ; AOP_STK for _main_sloc21_1_0
   0210 F8 48              3562 	lda	hl,72(sp)
   0212 73                 3563 	ld	(hl),e
   0213 E8 02              3564 	lda	sp,2(sp)
                           3565 ; genCmpEq
                           3566 ; AOP_STK for _main_sloc21_1_0
                           3567 ; AOP_STK for _main_sloc20_1_0
   0215 7E                 3568 	ld	a,(hl) ; 2
   0216 FE 02              3569 	cp	a,#0x02
   0218 C2 1F 02           3570 	jp	nz,00180$
   021B 3E 01              3571 	ld	a,#0x01
   021D 18 01              3572 	jr	00181$
   021F                    3573 00180$:
   021F AF                 3574 	xor	a,a
   0220                    3575 00181$:
   0220 F8 47              3576 	lda	hl,71(sp)
   0222 77                 3577 	ld	(hl),a
                           3578 ; genIfx
                           3579 ; AOP_STK for _main_sloc20_1_0
                           3580 ; Removed redundent or a,a
   0223 AF                 3581 	xor	a,a
   0224 B6                 3582 	or	a,(hl)
   0225 CA A1 05           3583 	jp	z,00143$
                           3584 ;	main.c 80
                           3585 ; genPointerGet
                           3586 ; AOP_STK for _main_sloc22_1_0
   0228 11 D3 01           3587 	ld	de,#_playerlocation + 0
   022B 1A                 3588 	ld	a,(de)
   022C 2B                 3589 	dec	hl
   022D 2B                 3590 	dec	hl
   022E 77                 3591 	ld	(hl),a
                           3592 ; genMinus
                           3593 ; AOP_STK for _main_sloc22_1_0
                           3594 ; AOP_STK for _main_sloc24_1_0
   022F 7E                 3595 	ld	a,(hl)
   0230 C6 F8              3596 	add	a,#0xF8
   0232 2B                 3597 	dec	hl
   0233 2B                 3598 	dec	hl
   0234 77                 3599 	ld	(hl),a
                           3600 ; genAssign (pointer)
                           3601 ; AOP_STK for _main_sloc24_1_0
   0235 11 D3 01           3602 	ld	de,#_playerlocation + 0
   0238 7E                 3603 	ld	a,(hl)
   0239 12                 3604 	ld	(de),a
                           3605 ;	main.c 81
                           3606 ; genPointerGet
                           3607 ; AOP_STK for _main_sloc1_1_0
                           3608 ; AOP_STK for _main_sloc23_1_0
   023A F8 5A              3609 	lda	hl,90(sp)
   023C 5E                 3610 	ld	e,(hl)
   023D 23                 3611 	inc	hl
   023E 56                 3612 	ld	d,(hl)
   023F 1A                 3613 	ld	a,(de)
   0240 F8 44              3614 	lda	hl,68(sp)
   0242 77                 3615 	ld	(hl),a
                           3616 ; genIpush
                           3617 ; AOP_STK for _main_sloc23_1_0
   0243 7E                 3618 	ld	a,(hl)
   0244 F5                 3619 	push	af
   0245 33                 3620 	inc	sp
                           3621 ; genIpush
                           3622 ; AOP_STK for _main_sloc24_1_0
   0246 2B                 3623 	dec	hl
   0247 7E                 3624 	ld	a,(hl)
   0248 F5                 3625 	push	af
   0249 33                 3626 	inc	sp
                           3627 ; genIpush
   024A 3E 00              3628 	ld	a,#0x00
   024C F5                 3629 	push	af
   024D 33                 3630 	inc	sp
                           3631 ; genCall
   024E CD 00 00           3632 	call	_move_sprite
   0251 E8 03              3633 	lda	sp,3(sp)
                           3634 ; genGoto
   0253 C3 A1 05           3635 	jp	00143$
                           3636 ; genLabel
   0256                    3637 00142$:
                           3638 ;	main.c 87
                           3639 ; genCall
   0256 CD 00 00           3640 	call	_joypad
                           3641 ; AOP_STK for _main_sloc27_1_0
   0259 F8 40              3642 	lda	hl,64(sp)
   025B 73                 3643 	ld	(hl),e
                           3644 ; genAnd
                           3645 ; AOP_STK for _main_sloc27_1_0
                           3646 ; AOP_STK for _main_sloc25_1_0
   025C 7E                 3647 	ld	a,(hl)
   025D E6 01              3648 	and	a,#0x01
   025F 23                 3649 	inc	hl
   0260 23                 3650 	inc	hl
   0261 77                 3651 	ld	(hl),a
                           3652 ; genIfx
                           3653 ; AOP_STK for _main_sloc25_1_0
                           3654 ; Removed redundent or a,a
   0262 AF                 3655 	xor	a,a
   0263 B6                 3656 	or	a,(hl)
   0264 CA 7B 03           3657 	jp	z,00139$
                           3658 ;	main.c 88
                           3659 ; genIpush
   0267 3E 01              3660 	ld	a,#0x01
   0269 F5                 3661 	push	af
   026A 33                 3662 	inc	sp
                           3663 ; genIpush
   026B 3E 00              3664 	ld	a,#0x00
   026D F5                 3665 	push	af
   026E 33                 3666 	inc	sp
                           3667 ; genCall
   026F CD 00 00           3668 	call	_set_sprite_tile
   0272 E8 02              3669 	lda	sp,2(sp)
                           3670 ;	main.c 89
                           3671 ; genPointerGet
                           3672 ; AOP_STK for _main_sloc1_1_0
                           3673 ; AOP_STK for _main_sloc26_1_0
   0274 F8 5A              3674 	lda	hl,90(sp)
   0276 5E                 3675 	ld	e,(hl)
   0277 23                 3676 	inc	hl
   0278 56                 3677 	ld	d,(hl)
   0279 1A                 3678 	ld	a,(de)
   027A F8 41              3679 	lda	hl,65(sp)
   027C 77                 3680 	ld	(hl),a
                           3681 ; genPointerGet
                           3682 ; AOP_STK for _main_sloc29_1_0
   027D 11 D3 01           3683 	ld	de,#_playerlocation + 0
   0280 1A                 3684 	ld	a,(de)
   0281 F8 3E              3685 	lda	hl,62(sp)
   0283 77                 3686 	ld	(hl),a
                           3687 ; genPlus
                           3688 ; AOP_STK for _main_sloc29_1_0
                           3689 ; AOP_STK for _main_sloc28_1_0
                           3690 ; genPlusIncr
                           3691 ;	genPlusIncr failed
   0284 7E                 3692 	ld	a,(hl)
   0285 C6 08              3693 	add	a,#0x08
   0287 23                 3694 	inc	hl
                           3695 ; genIpush
                           3696 ; AOP_STK for _main_sloc26_1_0
   0288 22                 3697 	ld	(hl+),a
   0289 23                 3698 	inc	hl
   028A 7E                 3699 	ld	a,(hl)
   028B F5                 3700 	push	af
   028C 33                 3701 	inc	sp
                           3702 ; genIpush
                           3703 ; AOP_STK for _main_sloc28_1_0
   028D 2B                 3704 	dec	hl
   028E 2B                 3705 	dec	hl
   028F 7E                 3706 	ld	a,(hl)
   0290 F5                 3707 	push	af
   0291 33                 3708 	inc	sp
                           3709 ; genCall
   0292 CD 14 00           3710 	call	_checkcollision
                           3711 ; AOP_STK for _main_sloc31_1_0
   0295 F8 3E              3712 	lda	hl,62(sp)
   0297 73                 3713 	ld	(hl),e
   0298 E8 02              3714 	lda	sp,2(sp)
                           3715 ; genCmpEq
                           3716 ; AOP_STK for _main_sloc31_1_0
                           3717 ; AOP_STK for _main_sloc30_1_0
   029A 7E                 3718 	ld	a,(hl)
   029B B7                 3719 	or	a,a
   029C C2 A3 02           3720 	jp	nz,00182$
   029F 3E 01              3721 	ld	a,#0x01
   02A1 18 01              3722 	jr	00183$
   02A3                    3723 00182$:
   02A3 AF                 3724 	xor	a,a
   02A4                    3725 00183$:
   02A4 F8 3D              3726 	lda	hl,61(sp)
   02A6 77                 3727 	ld	(hl),a
                           3728 ; genIfx
                           3729 ; AOP_STK for _main_sloc30_1_0
                           3730 ; Removed redundent or a,a
   02A7 AF                 3731 	xor	a,a
   02A8 B6                 3732 	or	a,(hl)
   02A9 CA DB 02           3733 	jp	z,00115$
                           3734 ;	main.c 90
                           3735 ; genPointerGet
                           3736 ; AOP_STK for _main_sloc32_1_0
   02AC 11 D3 01           3737 	ld	de,#_playerlocation + 0
   02AF 1A                 3738 	ld	a,(de)
   02B0 2B                 3739 	dec	hl
   02B1 2B                 3740 	dec	hl
   02B2 77                 3741 	ld	(hl),a
                           3742 ; genPlus
                           3743 ; AOP_STK for _main_sloc32_1_0
                           3744 ; AOP_STK for _main_sloc35_1_0
                           3745 ; genPlusIncr
                           3746 ;	genPlusIncr failed
   02B3 7E                 3747 	ld	a,(hl)
   02B4 C6 08              3748 	add	a,#0x08
   02B6 F8 38              3749 	lda	hl,56(sp)
   02B8 77                 3750 	ld	(hl),a
                           3751 ; genAssign (pointer)
                           3752 ; AOP_STK for _main_sloc35_1_0
   02B9 11 D3 01           3753 	ld	de,#_playerlocation + 0
   02BC 7E                 3754 	ld	a,(hl)
   02BD 12                 3755 	ld	(de),a
                           3756 ;	main.c 91
                           3757 ; genPointerGet
                           3758 ; AOP_STK for _main_sloc1_1_0
                           3759 ; AOP_STK for _main_sloc33_1_0
   02BE F8 5A              3760 	lda	hl,90(sp)
   02C0 5E                 3761 	ld	e,(hl)
   02C1 23                 3762 	inc	hl
   02C2 56                 3763 	ld	d,(hl)
   02C3 1A                 3764 	ld	a,(de)
   02C4 F8 3A              3765 	lda	hl,58(sp)
   02C6 77                 3766 	ld	(hl),a
                           3767 ; genIpush
                           3768 ; AOP_STK for _main_sloc33_1_0
   02C7 7E                 3769 	ld	a,(hl)
   02C8 F5                 3770 	push	af
   02C9 33                 3771 	inc	sp
                           3772 ; genIpush
                           3773 ; AOP_STK for _main_sloc35_1_0
   02CA 2B                 3774 	dec	hl
   02CB 2B                 3775 	dec	hl
   02CC 7E                 3776 	ld	a,(hl)
   02CD F5                 3777 	push	af
   02CE 33                 3778 	inc	sp
                           3779 ; genIpush
   02CF 3E 00              3780 	ld	a,#0x00
   02D1 F5                 3781 	push	af
   02D2 33                 3782 	inc	sp
                           3783 ; genCall
   02D3 CD 00 00           3784 	call	_move_sprite
   02D6 E8 03              3785 	lda	sp,3(sp)
                           3786 ; genGoto
   02D8 C3 A1 05           3787 	jp	00143$
                           3788 ; genLabel
   02DB                    3789 00115$:
                           3790 ;	main.c 94
                           3791 ; genPointerGet
                           3792 ; AOP_STK for _main_sloc1_1_0
                           3793 ; AOP_STK for _main_sloc34_1_0
   02DB F8 5A              3794 	lda	hl,90(sp)
   02DD 5E                 3795 	ld	e,(hl)
   02DE 23                 3796 	inc	hl
   02DF 56                 3797 	ld	d,(hl)
   02E0 1A                 3798 	ld	a,(de)
   02E1 F8 39              3799 	lda	hl,57(sp)
   02E3 77                 3800 	ld	(hl),a
                           3801 ; genPointerGet
                           3802 ; AOP_STK for _main_sloc37_1_0
   02E4 11 D3 01           3803 	ld	de,#_playerlocation + 0
   02E7 1A                 3804 	ld	a,(de)
   02E8 F8 36              3805 	lda	hl,54(sp)
   02EA 77                 3806 	ld	(hl),a
                           3807 ; genPlus
                           3808 ; AOP_STK for _main_sloc37_1_0
                           3809 ; AOP_STK for _main_sloc36_1_0
                           3810 ; genPlusIncr
                           3811 ;	genPlusIncr failed
   02EB 7E                 3812 	ld	a,(hl)
   02EC C6 08              3813 	add	a,#0x08
   02EE 23                 3814 	inc	hl
                           3815 ; genIpush
                           3816 ; AOP_STK for _main_sloc34_1_0
   02EF 22                 3817 	ld	(hl+),a
   02F0 23                 3818 	inc	hl
   02F1 7E                 3819 	ld	a,(hl)
   02F2 F5                 3820 	push	af
   02F3 33                 3821 	inc	sp
                           3822 ; genIpush
                           3823 ; AOP_STK for _main_sloc36_1_0
   02F4 2B                 3824 	dec	hl
   02F5 2B                 3825 	dec	hl
   02F6 7E                 3826 	ld	a,(hl)
   02F7 F5                 3827 	push	af
   02F8 33                 3828 	inc	sp
                           3829 ; genCall
   02F9 CD 14 00           3830 	call	_checkcollision
                           3831 ; AOP_STK for _main_sloc40_1_0
   02FC F8 35              3832 	lda	hl,53(sp)
   02FE 73                 3833 	ld	(hl),e
   02FF E8 02              3834 	lda	sp,2(sp)
                           3835 ; genCmpEq
                           3836 ; AOP_STK for _main_sloc40_1_0
                           3837 ; AOP_STK for _main_sloc38_1_0
   0301 7E                 3838 	ld	a,(hl) ; 2
   0302 FE 01              3839 	cp	a,#0x01
   0304 C2 0B 03           3840 	jp	nz,00184$
   0307 3E 01              3841 	ld	a,#0x01
   0309 18 01              3842 	jr	00185$
   030B                    3843 00184$:
   030B AF                 3844 	xor	a,a
   030C                    3845 00185$:
   030C F8 35              3846 	lda	hl,53(sp)
   030E 77                 3847 	ld	(hl),a
                           3848 ; genIfx
                           3849 ; AOP_STK for _main_sloc38_1_0
                           3850 ; Removed redundent or a,a
   030F AF                 3851 	xor	a,a
   0310 B6                 3852 	or	a,(hl)
   0311 C2 A1 05           3853 	jp	nz,00143$
                           3854 ;	main.c 98
                           3855 ; genPointerGet
                           3856 ; AOP_STK for _main_sloc1_1_0
                           3857 ; AOP_STK for _main_sloc39_1_0
   0314 F8 5A              3858 	lda	hl,90(sp)
   0316 5E                 3859 	ld	e,(hl)
   0317 23                 3860 	inc	hl
   0318 56                 3861 	ld	d,(hl)
   0319 1A                 3862 	ld	a,(de)
   031A F8 34              3863 	lda	hl,52(sp)
   031C 77                 3864 	ld	(hl),a
                           3865 ; genPointerGet
                           3866 ; AOP_STK for _main_sloc42_1_0
   031D 11 D3 01           3867 	ld	de,#_playerlocation + 0
   0320 1A                 3868 	ld	a,(de)
   0321 F8 31              3869 	lda	hl,49(sp)
   0323 77                 3870 	ld	(hl),a
                           3871 ; genPlus
                           3872 ; AOP_STK for _main_sloc42_1_0
                           3873 ; AOP_STK for _main_sloc41_1_0
                           3874 ; genPlusIncr
                           3875 ;	genPlusIncr failed
   0324 7E                 3876 	ld	a,(hl)
   0325 C6 08              3877 	add	a,#0x08
   0327 23                 3878 	inc	hl
                           3879 ; genIpush
                           3880 ; AOP_STK for _main_sloc39_1_0
   0328 22                 3881 	ld	(hl+),a
   0329 23                 3882 	inc	hl
   032A 7E                 3883 	ld	a,(hl)
   032B F5                 3884 	push	af
   032C 33                 3885 	inc	sp
                           3886 ; genIpush
                           3887 ; AOP_STK for _main_sloc41_1_0
   032D 2B                 3888 	dec	hl
   032E 2B                 3889 	dec	hl
   032F 7E                 3890 	ld	a,(hl)
   0330 F5                 3891 	push	af
   0331 33                 3892 	inc	sp
                           3893 ; genCall
   0332 CD 14 00           3894 	call	_checkcollision
                           3895 ; AOP_STK for _main_sloc44_1_0
   0335 F8 31              3896 	lda	hl,49(sp)
   0337 73                 3897 	ld	(hl),e
   0338 E8 02              3898 	lda	sp,2(sp)
                           3899 ; genCmpEq
                           3900 ; AOP_STK for _main_sloc44_1_0
                           3901 ; AOP_STK for _main_sloc43_1_0
   033A 7E                 3902 	ld	a,(hl) ; 2
   033B FE 02              3903 	cp	a,#0x02
   033D C2 44 03           3904 	jp	nz,00186$
   0340 3E 01              3905 	ld	a,#0x01
   0342 18 01              3906 	jr	00187$
   0344                    3907 00186$:
   0344 AF                 3908 	xor	a,a
   0345                    3909 00187$:
   0345 F8 30              3910 	lda	hl,48(sp)
   0347 77                 3911 	ld	(hl),a
                           3912 ; genIfx
                           3913 ; AOP_STK for _main_sloc43_1_0
                           3914 ; Removed redundent or a,a
   0348 AF                 3915 	xor	a,a
   0349 B6                 3916 	or	a,(hl)
   034A CA A1 05           3917 	jp	z,00143$
                           3918 ;	main.c 99
                           3919 ; genPointerGet
                           3920 ; AOP_STK for _main_sloc45_1_0
   034D 11 D3 01           3921 	ld	de,#_playerlocation + 0
   0350 1A                 3922 	ld	a,(de)
   0351 2B                 3923 	dec	hl
   0352 2B                 3924 	dec	hl
   0353 77                 3925 	ld	(hl),a
                           3926 ; genPlus
                           3927 ; AOP_STK for _main_sloc45_1_0
                           3928 ; AOP_STK for _main_sloc47_1_0
                           3929 ; genPlusIncr
                           3930 ;	genPlusIncr failed
   0354 7E                 3931 	ld	a,(hl)
   0355 C6 08              3932 	add	a,#0x08
   0357 2B                 3933 	dec	hl
   0358 2B                 3934 	dec	hl
   0359 77                 3935 	ld	(hl),a
                           3936 ; genAssign (pointer)
                           3937 ; AOP_STK for _main_sloc47_1_0
   035A 11 D3 01           3938 	ld	de,#_playerlocation + 0
   035D 7E                 3939 	ld	a,(hl)
   035E 12                 3940 	ld	(de),a
                           3941 ;	main.c 100
                           3942 ; genPointerGet
                           3943 ; AOP_STK for _main_sloc1_1_0
                           3944 ; AOP_STK for _main_sloc46_1_0
   035F F8 5A              3945 	lda	hl,90(sp)
   0361 5E                 3946 	ld	e,(hl)
   0362 23                 3947 	inc	hl
   0363 56                 3948 	ld	d,(hl)
   0364 1A                 3949 	ld	a,(de)
   0365 F8 2D              3950 	lda	hl,45(sp)
   0367 77                 3951 	ld	(hl),a
                           3952 ; genIpush
                           3953 ; AOP_STK for _main_sloc46_1_0
   0368 7E                 3954 	ld	a,(hl)
   0369 F5                 3955 	push	af
   036A 33                 3956 	inc	sp
                           3957 ; genIpush
                           3958 ; AOP_STK for _main_sloc47_1_0
   036B 2B                 3959 	dec	hl
   036C 7E                 3960 	ld	a,(hl)
   036D F5                 3961 	push	af
   036E 33                 3962 	inc	sp
                           3963 ; genIpush
   036F 3E 00              3964 	ld	a,#0x00
   0371 F5                 3965 	push	af
   0372 33                 3966 	inc	sp
                           3967 ; genCall
   0373 CD 00 00           3968 	call	_move_sprite
   0376 E8 03              3969 	lda	sp,3(sp)
                           3970 ; genGoto
   0378 C3 A1 05           3971 	jp	00143$
                           3972 ; genLabel
   037B                    3973 00139$:
                           3974 ;	main.c 106
                           3975 ; genCall
   037B CD 00 00           3976 	call	_joypad
                           3977 ; AOP_STK for _main_sloc49_1_0
   037E F8 2A              3978 	lda	hl,42(sp)
   0380 73                 3979 	ld	(hl),e
                           3980 ; genAnd
                           3981 ; AOP_STK for _main_sloc49_1_0
                           3982 ; AOP_STK for _main_sloc48_1_0
   0381 7E                 3983 	ld	a,(hl)
   0382 E6 04              3984 	and	a,#0x04
   0384 23                 3985 	inc	hl
   0385 77                 3986 	ld	(hl),a
                           3987 ; genIfx
                           3988 ; AOP_STK for _main_sloc48_1_0
                           3989 ; Removed redundent or a,a
   0386 AF                 3990 	xor	a,a
   0387 B6                 3991 	or	a,(hl)
   0388 CA 93 04           3992 	jp	z,00136$
                           3993 ;	main.c 107
                           3994 ; genPointerGet
                           3995 ; AOP_STK for _main_sloc1_1_0
                           3996 ; AOP_STK for _main_sloc52_1_0
   038B F8 5A              3997 	lda	hl,90(sp)
   038D 5E                 3998 	ld	e,(hl)
   038E 23                 3999 	inc	hl
   038F 56                 4000 	ld	d,(hl)
   0390 1A                 4001 	ld	a,(de)
   0391 F8 27              4002 	lda	hl,39(sp)
   0393 77                 4003 	ld	(hl),a
                           4004 ; genMinus
                           4005 ; AOP_STK for _main_sloc52_1_0
                           4006 ; AOP_STK for _main_sloc50_1_0
   0394 7E                 4007 	ld	a,(hl)
   0395 C6 F8              4008 	add	a,#0xF8
   0397 23                 4009 	inc	hl
   0398 23                 4010 	inc	hl
   0399 77                 4011 	ld	(hl),a
                           4012 ; genPointerGet
                           4013 ; AOP_STK for _main_sloc51_1_0
   039A 11 D3 01           4014 	ld	de,#_playerlocation + 0
   039D 1A                 4015 	ld	a,(de)
   039E 2B                 4016 	dec	hl
                           4017 ; genIpush
                           4018 ; AOP_STK for _main_sloc50_1_0
   039F 22                 4019 	ld	(hl+),a
   03A0 7E                 4020 	ld	a,(hl)
   03A1 F5                 4021 	push	af
   03A2 33                 4022 	inc	sp
                           4023 ; genIpush
                           4024 ; AOP_STK for _main_sloc51_1_0
   03A3 2B                 4025 	dec	hl
   03A4 7E                 4026 	ld	a,(hl)
   03A5 F5                 4027 	push	af
   03A6 33                 4028 	inc	sp
                           4029 ; genCall
   03A7 CD 14 00           4030 	call	_checkcollision
                           4031 ; AOP_STK for _main_sloc54_1_0
   03AA F8 27              4032 	lda	hl,39(sp)
   03AC 73                 4033 	ld	(hl),e
   03AD E8 02              4034 	lda	sp,2(sp)
                           4035 ; genCmpEq
                           4036 ; AOP_STK for _main_sloc54_1_0
                           4037 ; AOP_STK for _main_sloc53_1_0
   03AF 7E                 4038 	ld	a,(hl)
   03B0 B7                 4039 	or	a,a
   03B1 C2 B8 03           4040 	jp	nz,00188$
   03B4 3E 01              4041 	ld	a,#0x01
   03B6 18 01              4042 	jr	00189$
   03B8                    4043 00188$:
   03B8 AF                 4044 	xor	a,a
   03B9                    4045 00189$:
   03B9 F8 26              4046 	lda	hl,38(sp)
   03BB 77                 4047 	ld	(hl),a
                           4048 ; genIfx
                           4049 ; AOP_STK for _main_sloc53_1_0
                           4050 ; Removed redundent or a,a
   03BC AF                 4051 	xor	a,a
   03BD B6                 4052 	or	a,(hl)
   03BE CA F3 03           4053 	jp	z,00123$
                           4054 ;	main.c 108
                           4055 ; genPointerGet
                           4056 ; AOP_STK for _main_sloc1_1_0
                           4057 ; AOP_STK for _main_sloc55_1_0
   03C1 F8 5A              4058 	lda	hl,90(sp)
   03C3 5E                 4059 	ld	e,(hl)
   03C4 23                 4060 	inc	hl
   03C5 56                 4061 	ld	d,(hl)
   03C6 1A                 4062 	ld	a,(de)
   03C7 F8 24              4063 	lda	hl,36(sp)
   03C9 77                 4064 	ld	(hl),a
                           4065 ; genMinus
                           4066 ; AOP_STK for _main_sloc55_1_0
                           4067 ; AOP_STK for _main_sloc57_1_0
   03CA 7E                 4068 	ld	a,(hl)
   03CB C6 F8              4069 	add	a,#0xF8
   03CD 2B                 4070 	dec	hl
   03CE 2B                 4071 	dec	hl
   03CF 77                 4072 	ld	(hl),a
                           4073 ; genAssign (pointer)
                           4074 ; AOP_STK for _main_sloc1_1_0
                           4075 ; AOP_STK for _main_sloc57_1_0
   03D0 F8 5A              4076 	lda	hl,90(sp)
   03D2 5E                 4077 	ld	e,(hl)
   03D3 23                 4078 	inc	hl
   03D4 56                 4079 	ld	d,(hl)
   03D5 F8 22              4080 	lda	hl,34(sp)
   03D7 7E                 4081 	ld	a,(hl)
   03D8 12                 4082 	ld	(de),a
                           4083 ;	main.c 109
                           4084 ; genPointerGet
                           4085 ; AOP_STK for _main_sloc56_1_0
   03D9 11 D3 01           4086 	ld	de,#_playerlocation + 0
   03DC 1A                 4087 	ld	a,(de)
   03DD 23                 4088 	inc	hl
   03DE 77                 4089 	ld	(hl),a
                           4090 ; genIpush
                           4091 ; AOP_STK for _main_sloc57_1_0
   03DF 2B                 4092 	dec	hl
   03E0 7E                 4093 	ld	a,(hl)
   03E1 F5                 4094 	push	af
   03E2 33                 4095 	inc	sp
                           4096 ; genIpush
                           4097 ; AOP_STK for _main_sloc56_1_0
   03E3 23                 4098 	inc	hl
   03E4 7E                 4099 	ld	a,(hl)
   03E5 F5                 4100 	push	af
   03E6 33                 4101 	inc	sp
                           4102 ; genIpush
   03E7 3E 00              4103 	ld	a,#0x00
   03E9 F5                 4104 	push	af
   03EA 33                 4105 	inc	sp
                           4106 ; genCall
   03EB CD 00 00           4107 	call	_move_sprite
   03EE E8 03              4108 	lda	sp,3(sp)
                           4109 ; genGoto
   03F0 C3 A1 05           4110 	jp	00143$
                           4111 ; genLabel
   03F3                    4112 00123$:
                           4113 ;	main.c 112
                           4114 ; genPointerGet
                           4115 ; AOP_STK for _main_sloc1_1_0
                           4116 ; AOP_STK for _main_sloc60_1_0
   03F3 F8 5A              4117 	lda	hl,90(sp)
   03F5 5E                 4118 	ld	e,(hl)
   03F6 23                 4119 	inc	hl
   03F7 56                 4120 	ld	d,(hl)
   03F8 1A                 4121 	ld	a,(de)
   03F9 F8 1F              4122 	lda	hl,31(sp)
   03FB 77                 4123 	ld	(hl),a
                           4124 ; genMinus
                           4125 ; AOP_STK for _main_sloc60_1_0
                           4126 ; AOP_STK for _main_sloc58_1_0
   03FC 7E                 4127 	ld	a,(hl)
   03FD C6 F8              4128 	add	a,#0xF8
   03FF 23                 4129 	inc	hl
   0400 23                 4130 	inc	hl
   0401 77                 4131 	ld	(hl),a
                           4132 ; genPointerGet
                           4133 ; AOP_STK for _main_sloc59_1_0
   0402 11 D3 01           4134 	ld	de,#_playerlocation + 0
   0405 1A                 4135 	ld	a,(de)
   0406 2B                 4136 	dec	hl
                           4137 ; genIpush
                           4138 ; AOP_STK for _main_sloc58_1_0
   0407 22                 4139 	ld	(hl+),a
   0408 7E                 4140 	ld	a,(hl)
   0409 F5                 4141 	push	af
   040A 33                 4142 	inc	sp
                           4143 ; genIpush
                           4144 ; AOP_STK for _main_sloc59_1_0
   040B 2B                 4145 	dec	hl
   040C 7E                 4146 	ld	a,(hl)
   040D F5                 4147 	push	af
   040E 33                 4148 	inc	sp
                           4149 ; genCall
   040F CD 14 00           4150 	call	_checkcollision
                           4151 ; AOP_STK for _main_sloc62_1_0
   0412 F8 1F              4152 	lda	hl,31(sp)
   0414 73                 4153 	ld	(hl),e
   0415 E8 02              4154 	lda	sp,2(sp)
                           4155 ; genCmpEq
                           4156 ; AOP_STK for _main_sloc62_1_0
                           4157 ; AOP_STK for _main_sloc61_1_0
   0417 7E                 4158 	ld	a,(hl) ; 2
   0418 FE 01              4159 	cp	a,#0x01
   041A C2 21 04           4160 	jp	nz,00190$
   041D 3E 01              4161 	ld	a,#0x01
   041F 18 01              4162 	jr	00191$
   0421                    4163 00190$:
   0421 AF                 4164 	xor	a,a
   0422                    4165 00191$:
   0422 F8 1E              4166 	lda	hl,30(sp)
   0424 77                 4167 	ld	(hl),a
                           4168 ; genIfx
                           4169 ; AOP_STK for _main_sloc61_1_0
                           4170 ; Removed redundent or a,a
   0425 AF                 4171 	xor	a,a
   0426 B6                 4172 	or	a,(hl)
   0427 C2 A1 05           4173 	jp	nz,00143$
                           4174 ;	main.c 116
                           4175 ; genPointerGet
                           4176 ; AOP_STK for _main_sloc1_1_0
                           4177 ; AOP_STK for _main_sloc65_1_0
   042A F8 5A              4178 	lda	hl,90(sp)
   042C 5E                 4179 	ld	e,(hl)
   042D 23                 4180 	inc	hl
   042E 56                 4181 	ld	d,(hl)
   042F 1A                 4182 	ld	a,(de)
   0430 F8 1A              4183 	lda	hl,26(sp)
   0432 77                 4184 	ld	(hl),a
                           4185 ; genMinus
                           4186 ; AOP_STK for _main_sloc65_1_0
                           4187 ; AOP_STK for _main_sloc63_1_0
   0433 7E                 4188 	ld	a,(hl)
   0434 C6 F8              4189 	add	a,#0xF8
   0436 23                 4190 	inc	hl
   0437 23                 4191 	inc	hl
   0438 77                 4192 	ld	(hl),a
                           4193 ; genPointerGet
                           4194 ; AOP_STK for _main_sloc64_1_0
   0439 11 D3 01           4195 	ld	de,#_playerlocation + 0
   043C 1A                 4196 	ld	a,(de)
   043D 2B                 4197 	dec	hl
                           4198 ; genIpush
                           4199 ; AOP_STK for _main_sloc63_1_0
   043E 22                 4200 	ld	(hl+),a
   043F 7E                 4201 	ld	a,(hl)
   0440 F5                 4202 	push	af
   0441 33                 4203 	inc	sp
                           4204 ; genIpush
                           4205 ; AOP_STK for _main_sloc64_1_0
   0442 2B                 4206 	dec	hl
   0443 7E                 4207 	ld	a,(hl)
   0444 F5                 4208 	push	af
   0445 33                 4209 	inc	sp
                           4210 ; genCall
   0446 CD 14 00           4211 	call	_checkcollision
                           4212 ; AOP_STK for _main_sloc67_1_0
   0449 F8 1A              4213 	lda	hl,26(sp)
   044B 73                 4214 	ld	(hl),e
   044C E8 02              4215 	lda	sp,2(sp)
                           4216 ; genCmpEq
                           4217 ; AOP_STK for _main_sloc67_1_0
                           4218 ; AOP_STK for _main_sloc66_1_0
   044E 7E                 4219 	ld	a,(hl) ; 2
   044F FE 02              4220 	cp	a,#0x02
   0451 C2 58 04           4221 	jp	nz,00192$
   0454 3E 01              4222 	ld	a,#0x01
   0456 18 01              4223 	jr	00193$
   0458                    4224 00192$:
   0458 AF                 4225 	xor	a,a
   0459                    4226 00193$:
   0459 F8 19              4227 	lda	hl,25(sp)
   045B 77                 4228 	ld	(hl),a
                           4229 ; genIfx
                           4230 ; AOP_STK for _main_sloc66_1_0
                           4231 ; Removed redundent or a,a
   045C AF                 4232 	xor	a,a
   045D B6                 4233 	or	a,(hl)
   045E CA A1 05           4234 	jp	z,00143$
                           4235 ;	main.c 117
                           4236 ; genPointerGet
                           4237 ; AOP_STK for _main_sloc1_1_0
                           4238 ; AOP_STK for _main_sloc68_1_0
   0461 F8 5A              4239 	lda	hl,90(sp)
   0463 5E                 4240 	ld	e,(hl)
   0464 23                 4241 	inc	hl
   0465 56                 4242 	ld	d,(hl)
   0466 1A                 4243 	ld	a,(de)
   0467 F8 17              4244 	lda	hl,23(sp)
   0469 77                 4245 	ld	(hl),a
                           4246 ; genMinus
                           4247 ; AOP_STK for _main_sloc68_1_0
                           4248 ; AOP_STK for _main_sloc70_1_0
   046A 7E                 4249 	ld	a,(hl)
   046B C6 F8              4250 	add	a,#0xF8
   046D 2B                 4251 	dec	hl
   046E 2B                 4252 	dec	hl
   046F 77                 4253 	ld	(hl),a
                           4254 ; genAssign (pointer)
                           4255 ; AOP_STK for _main_sloc1_1_0
                           4256 ; AOP_STK for _main_sloc70_1_0
   0470 F8 5A              4257 	lda	hl,90(sp)
   0472 5E                 4258 	ld	e,(hl)
   0473 23                 4259 	inc	hl
   0474 56                 4260 	ld	d,(hl)
   0475 F8 15              4261 	lda	hl,21(sp)
   0477 7E                 4262 	ld	a,(hl)
   0478 12                 4263 	ld	(de),a
                           4264 ;	main.c 118
                           4265 ; genPointerGet
                           4266 ; AOP_STK for _main_sloc69_1_0
   0479 11 D3 01           4267 	ld	de,#_playerlocation + 0
   047C 1A                 4268 	ld	a,(de)
   047D 23                 4269 	inc	hl
   047E 77                 4270 	ld	(hl),a
                           4271 ; genIpush
                           4272 ; AOP_STK for _main_sloc70_1_0
   047F 2B                 4273 	dec	hl
   0480 7E                 4274 	ld	a,(hl)
   0481 F5                 4275 	push	af
   0482 33                 4276 	inc	sp
                           4277 ; genIpush
                           4278 ; AOP_STK for _main_sloc69_1_0
   0483 23                 4279 	inc	hl
   0484 7E                 4280 	ld	a,(hl)
   0485 F5                 4281 	push	af
   0486 33                 4282 	inc	sp
                           4283 ; genIpush
   0487 3E 00              4284 	ld	a,#0x00
   0489 F5                 4285 	push	af
   048A 33                 4286 	inc	sp
                           4287 ; genCall
   048B CD 00 00           4288 	call	_move_sprite
   048E E8 03              4289 	lda	sp,3(sp)
                           4290 ; genGoto
   0490 C3 A1 05           4291 	jp	00143$
                           4292 ; genLabel
   0493                    4293 00136$:
                           4294 ;	main.c 124
                           4295 ; genCall
   0493 CD 00 00           4296 	call	_joypad
                           4297 ; AOP_STK for _main_sloc72_1_0
   0496 F8 13              4298 	lda	hl,19(sp)
   0498 73                 4299 	ld	(hl),e
                           4300 ; genAnd
                           4301 ; AOP_STK for _main_sloc72_1_0
                           4302 ; AOP_STK for _main_sloc71_1_0
   0499 7E                 4303 	ld	a,(hl)
   049A E6 08              4304 	and	a,#0x08
   049C 23                 4305 	inc	hl
   049D 77                 4306 	ld	(hl),a
                           4307 ; genIfx
                           4308 ; AOP_STK for _main_sloc71_1_0
                           4309 ; Removed redundent or a,a
   049E AF                 4310 	xor	a,a
   049F B6                 4311 	or	a,(hl)
   04A0 CA A1 05           4312 	jp	z,00143$
                           4313 ;	main.c 125
                           4314 ; genPointerGet
                           4315 ; AOP_STK for _main_sloc1_1_0
                           4316 ; AOP_STK for _main_sloc75_1_0
   04A3 F8 5A              4317 	lda	hl,90(sp)
   04A5 5E                 4318 	ld	e,(hl)
   04A6 23                 4319 	inc	hl
   04A7 56                 4320 	ld	d,(hl)
   04A8 1A                 4321 	ld	a,(de)
   04A9 F8 10              4322 	lda	hl,16(sp)
   04AB 77                 4323 	ld	(hl),a
                           4324 ; genPlus
                           4325 ; AOP_STK for _main_sloc75_1_0
                           4326 ; AOP_STK for _main_sloc73_1_0
                           4327 ; genPlusIncr
                           4328 ;	genPlusIncr failed
   04AC 7E                 4329 	ld	a,(hl)
   04AD C6 08              4330 	add	a,#0x08
   04AF 23                 4331 	inc	hl
   04B0 23                 4332 	inc	hl
   04B1 77                 4333 	ld	(hl),a
                           4334 ; genPointerGet
                           4335 ; AOP_STK for _main_sloc74_1_0
   04B2 11 D3 01           4336 	ld	de,#_playerlocation + 0
   04B5 1A                 4337 	ld	a,(de)
   04B6 2B                 4338 	dec	hl
                           4339 ; genIpush
                           4340 ; AOP_STK for _main_sloc73_1_0
   04B7 22                 4341 	ld	(hl+),a
   04B8 7E                 4342 	ld	a,(hl)
   04B9 F5                 4343 	push	af
   04BA 33                 4344 	inc	sp
                           4345 ; genIpush
                           4346 ; AOP_STK for _main_sloc74_1_0
   04BB 2B                 4347 	dec	hl
   04BC 7E                 4348 	ld	a,(hl)
   04BD F5                 4349 	push	af
   04BE 33                 4350 	inc	sp
                           4351 ; genCall
   04BF CD 14 00           4352 	call	_checkcollision
                           4353 ; AOP_STK for _main_sloc77_1_0
   04C2 F8 10              4354 	lda	hl,16(sp)
   04C4 73                 4355 	ld	(hl),e
   04C5 E8 02              4356 	lda	sp,2(sp)
                           4357 ; genCmpEq
                           4358 ; AOP_STK for _main_sloc77_1_0
                           4359 ; AOP_STK for _main_sloc76_1_0
   04C7 7E                 4360 	ld	a,(hl)
   04C8 B7                 4361 	or	a,a
   04C9 C2 D0 04           4362 	jp	nz,00194$
   04CC 3E 01              4363 	ld	a,#0x01
   04CE 18 01              4364 	jr	00195$
   04D0                    4365 00194$:
   04D0 AF                 4366 	xor	a,a
   04D1                    4367 00195$:
   04D1 F8 0F              4368 	lda	hl,15(sp)
   04D3 77                 4369 	ld	(hl),a
                           4370 ; genIfx
                           4371 ; AOP_STK for _main_sloc76_1_0
                           4372 ; Removed redundent or a,a
   04D4 AF                 4373 	xor	a,a
   04D5 B6                 4374 	or	a,(hl)
   04D6 CA 0B 05           4375 	jp	z,00131$
                           4376 ;	main.c 126
                           4377 ; genPointerGet
                           4378 ; AOP_STK for _main_sloc1_1_0
                           4379 ; AOP_STK for _main_sloc78_1_0
   04D9 F8 5A              4380 	lda	hl,90(sp)
   04DB 5E                 4381 	ld	e,(hl)
   04DC 23                 4382 	inc	hl
   04DD 56                 4383 	ld	d,(hl)
   04DE 1A                 4384 	ld	a,(de)
   04DF F8 0D              4385 	lda	hl,13(sp)
   04E1 77                 4386 	ld	(hl),a
                           4387 ; genPlus
                           4388 ; AOP_STK for _main_sloc78_1_0
                           4389 ; AOP_STK for _main_sloc80_1_0
                           4390 ; genPlusIncr
                           4391 ;	genPlusIncr failed
   04E2 7E                 4392 	ld	a,(hl)
   04E3 C6 08              4393 	add	a,#0x08
   04E5 2B                 4394 	dec	hl
   04E6 2B                 4395 	dec	hl
   04E7 77                 4396 	ld	(hl),a
                           4397 ; genAssign (pointer)
                           4398 ; AOP_STK for _main_sloc1_1_0
                           4399 ; AOP_STK for _main_sloc80_1_0
   04E8 F8 5A              4400 	lda	hl,90(sp)
   04EA 5E                 4401 	ld	e,(hl)
   04EB 23                 4402 	inc	hl
   04EC 56                 4403 	ld	d,(hl)
   04ED F8 0B              4404 	lda	hl,11(sp)
   04EF 7E                 4405 	ld	a,(hl)
   04F0 12                 4406 	ld	(de),a
                           4407 ;	main.c 127
                           4408 ; genPointerGet
                           4409 ; AOP_STK for _main_sloc79_1_0
   04F1 11 D3 01           4410 	ld	de,#_playerlocation + 0
   04F4 1A                 4411 	ld	a,(de)
   04F5 23                 4412 	inc	hl
   04F6 77                 4413 	ld	(hl),a
                           4414 ; genIpush
                           4415 ; AOP_STK for _main_sloc80_1_0
   04F7 2B                 4416 	dec	hl
   04F8 7E                 4417 	ld	a,(hl)
   04F9 F5                 4418 	push	af
   04FA 33                 4419 	inc	sp
                           4420 ; genIpush
                           4421 ; AOP_STK for _main_sloc79_1_0
   04FB 23                 4422 	inc	hl
   04FC 7E                 4423 	ld	a,(hl)
   04FD F5                 4424 	push	af
   04FE 33                 4425 	inc	sp
                           4426 ; genIpush
   04FF 3E 00              4427 	ld	a,#0x00
   0501 F5                 4428 	push	af
   0502 33                 4429 	inc	sp
                           4430 ; genCall
   0503 CD 00 00           4431 	call	_move_sprite
   0506 E8 03              4432 	lda	sp,3(sp)
                           4433 ; genGoto
   0508 C3 A1 05           4434 	jp	00143$
                           4435 ; genLabel
   050B                    4436 00131$:
                           4437 ;	main.c 130
                           4438 ; genPointerGet
                           4439 ; AOP_STK for _main_sloc1_1_0
                           4440 ; AOP_STK for _main_sloc83_1_0
   050B F8 5A              4441 	lda	hl,90(sp)
   050D 5E                 4442 	ld	e,(hl)
   050E 23                 4443 	inc	hl
   050F 56                 4444 	ld	d,(hl)
   0510 1A                 4445 	ld	a,(de)
   0511 F8 08              4446 	lda	hl,8(sp)
   0513 77                 4447 	ld	(hl),a
                           4448 ; genPlus
                           4449 ; AOP_STK for _main_sloc83_1_0
                           4450 ; AOP_STK for _main_sloc81_1_0
                           4451 ; genPlusIncr
                           4452 ;	genPlusIncr failed
   0514 7E                 4453 	ld	a,(hl)
   0515 C6 08              4454 	add	a,#0x08
   0517 23                 4455 	inc	hl
   0518 23                 4456 	inc	hl
   0519 77                 4457 	ld	(hl),a
                           4458 ; genPointerGet
                           4459 ; AOP_STK for _main_sloc82_1_0
   051A 11 D3 01           4460 	ld	de,#_playerlocation + 0
   051D 1A                 4461 	ld	a,(de)
   051E 2B                 4462 	dec	hl
                           4463 ; genIpush
                           4464 ; AOP_STK for _main_sloc81_1_0
   051F 22                 4465 	ld	(hl+),a
   0520 7E                 4466 	ld	a,(hl)
   0521 F5                 4467 	push	af
   0522 33                 4468 	inc	sp
                           4469 ; genIpush
                           4470 ; AOP_STK for _main_sloc82_1_0
   0523 2B                 4471 	dec	hl
   0524 7E                 4472 	ld	a,(hl)
   0525 F5                 4473 	push	af
   0526 33                 4474 	inc	sp
                           4475 ; genCall
   0527 CD 14 00           4476 	call	_checkcollision
                           4477 ; AOP_STK for _main_sloc85_1_0
   052A F8 08              4478 	lda	hl,8(sp)
   052C 73                 4479 	ld	(hl),e
   052D E8 02              4480 	lda	sp,2(sp)
                           4481 ; genCmpEq
                           4482 ; AOP_STK for _main_sloc85_1_0
                           4483 ; AOP_STK for _main_sloc84_1_0
   052F 7E                 4484 	ld	a,(hl) ; 2
   0530 FE 01              4485 	cp	a,#0x01
   0532 C2 39 05           4486 	jp	nz,00196$
   0535 3E 01              4487 	ld	a,#0x01
   0537 18 01              4488 	jr	00197$
   0539                    4489 00196$:
   0539 AF                 4490 	xor	a,a
   053A                    4491 00197$:
   053A F8 07              4492 	lda	hl,7(sp)
   053C 77                 4493 	ld	(hl),a
                           4494 ; genIfx
                           4495 ; AOP_STK for _main_sloc84_1_0
                           4496 ; Removed redundent or a,a
   053D AF                 4497 	xor	a,a
   053E B6                 4498 	or	a,(hl)
   053F C2 A1 05           4499 	jp	nz,00143$
                           4500 ;	main.c 134
                           4501 ; genPointerGet
                           4502 ; AOP_STK for _main_sloc1_1_0
                           4503 ; AOP_STK for _main_sloc88_1_0
   0542 F8 5A              4504 	lda	hl,90(sp)
   0544 5E                 4505 	ld	e,(hl)
   0545 23                 4506 	inc	hl
   0546 56                 4507 	ld	d,(hl)
   0547 1A                 4508 	ld	a,(de)
   0548 F8 03              4509 	lda	hl,3(sp)
   054A 77                 4510 	ld	(hl),a
                           4511 ; genPlus
                           4512 ; AOP_STK for _main_sloc88_1_0
                           4513 ; AOP_STK for _main_sloc86_1_0
                           4514 ; genPlusIncr
                           4515 ;	genPlusIncr failed
   054B 7E                 4516 	ld	a,(hl)
   054C C6 08              4517 	add	a,#0x08
   054E 23                 4518 	inc	hl
   054F 23                 4519 	inc	hl
   0550 77                 4520 	ld	(hl),a
                           4521 ; genPointerGet
                           4522 ; AOP_STK for _main_sloc87_1_0
   0551 11 D3 01           4523 	ld	de,#_playerlocation + 0
   0554 1A                 4524 	ld	a,(de)
   0555 2B                 4525 	dec	hl
                           4526 ; genIpush
                           4527 ; AOP_STK for _main_sloc86_1_0
   0556 22                 4528 	ld	(hl+),a
   0557 7E                 4529 	ld	a,(hl)
   0558 F5                 4530 	push	af
   0559 33                 4531 	inc	sp
                           4532 ; genIpush
                           4533 ; AOP_STK for _main_sloc87_1_0
   055A 2B                 4534 	dec	hl
   055B 7E                 4535 	ld	a,(hl)
   055C F5                 4536 	push	af
   055D 33                 4537 	inc	sp
                           4538 ; genCall
   055E CD 14 00           4539 	call	_checkcollision
                           4540 ; AOP_STK for _main_sloc90_1_0
   0561 F8 03              4541 	lda	hl,3(sp)
   0563 73                 4542 	ld	(hl),e
   0564 E8 02              4543 	lda	sp,2(sp)
                           4544 ; genCmpEq
                           4545 ; AOP_STK for _main_sloc90_1_0
                           4546 ; AOP_STK for _main_sloc89_1_0
   0566 7E                 4547 	ld	a,(hl) ; 2
   0567 FE 02              4548 	cp	a,#0x02
   0569 C2 70 05           4549 	jp	nz,00198$
   056C 3E 01              4550 	ld	a,#0x01
   056E 18 01              4551 	jr	00199$
   0570                    4552 00198$:
   0570 AF                 4553 	xor	a,a
   0571                    4554 00199$:
   0571 F8 02              4555 	lda	hl,2(sp)
   0573 77                 4556 	ld	(hl),a
                           4557 ; genIfx
                           4558 ; AOP_STK for _main_sloc89_1_0
                           4559 ; Removed redundent or a,a
   0574 AF                 4560 	xor	a,a
   0575 B6                 4561 	or	a,(hl)
   0576 CA A1 05           4562 	jp	z,00143$
                           4563 ;	main.c 135
                           4564 ; genPointerGet
                           4565 ; AOP_STK for _main_sloc1_1_0
                           4566 ; AOP_STK for _main_sloc91_1_0
   0579 F8 5A              4567 	lda	hl,90(sp)
   057B 5E                 4568 	ld	e,(hl)
   057C 23                 4569 	inc	hl
   057D 56                 4570 	ld	d,(hl)
   057E 1A                 4571 	ld	a,(de)
   057F F8 00              4572 	lda	hl,0(sp)
   0581 77                 4573 	ld	(hl),a
                           4574 ; genPlus
                           4575 ; AOP_STK for _main_sloc91_1_0
                           4576 ; genPlusIncr
                           4577 ;	genPlusIncr failed
   0582 7E                 4578 	ld	a,(hl)
   0583 C6 08              4579 	add	a,#0x08
   0585 4F                 4580 	ld	c,a
                           4581 ; genAssign (pointer)
                           4582 ; AOP_STK for _main_sloc1_1_0
   0586 F8 5A              4583 	lda	hl,90(sp)
   0588 5E                 4584 	ld	e,(hl)
   0589 23                 4585 	inc	hl
   058A 56                 4586 	ld	d,(hl)
   058B 79                 4587 	ld	a,c
   058C 12                 4588 	ld	(de),a
                           4589 ;	main.c 136
                           4590 ; genPointerGet
   058D 11 D3 01           4591 	ld	de,#_playerlocation + 0
   0590 1A                 4592 	ld	a,(de)
   0591 47                 4593 	ld	b,a
                           4594 ; genIpush
   0592 79                 4595 	ld	a,c
   0593 F5                 4596 	push	af
   0594 33                 4597 	inc	sp
                           4598 ; genIpush
   0595 78                 4599 	ld	a,b
   0596 F5                 4600 	push	af
   0597 33                 4601 	inc	sp
                           4602 ; genIpush
   0598 3E 00              4603 	ld	a,#0x00
   059A F5                 4604 	push	af
   059B 33                 4605 	inc	sp
                           4606 ; genCall
   059C CD 00 00           4607 	call	_move_sprite
   059F E8 03              4608 	lda	sp,3(sp)
                           4609 ; genLabel
   05A1                    4610 00143$:
                           4611 ;	main.c 141
                           4612 ; genIpush
   05A1 3E 06              4613 	ld	a,#0x06
   05A3 F5                 4614 	push	af
   05A4 33                 4615 	inc	sp
                           4616 ; genCall
   05A5 CD 00 00           4617 	call	__delay
   05A8 E8 01              4618 	lda	sp,1(sp)
                           4619 ; genGoto
   05AA C3 20 01           4620 	jp	00144$
                           4621 ; genLabel
   05AD                    4622 00146$:
                           4623 ;	main.c 144
                           4624 ; genIpush
   05AD 21 D9 05           4625 	ld	hl,#__str_0 + 0
   05B0 E5                 4626 	push	hl
                           4627 ; genCall
   05B1 CD 00 00           4628 	call	_printf
   05B4 E8 02              4629 	lda	sp,2(sp)
                           4630 ;	main.c 146
                           4631 ; genLabel
   05B6                    4632 00147$:
                           4633 ; genCall
   05B6 CD 00 00           4634 	call	_joypad
   05B9 4B                 4635 	ld	c,e
                           4636 ; genAnd
   05BA 79                 4637 	ld	a,c
   05BB CB 67              4638 	bit	4,a
   05BD CA B6 05           4639 	jp	z,00147$
                           4640 ;	main.c 148
                           4641 ; genPlus
                           4642 ; genPlusIncr
   05C0 11 3F 00           4643 	ld	de,#_Maze + 0 + 63
                           4644 ; genAssign (pointer)
   05C3 3E 02              4645 	ld	a,#0x02
   05C5 12                 4646 	ld	(de),a
                           4647 ;	main.c 149
                           4648 ; genPlus
                           4649 ; genPlusIncr
   05C6 11 B7 00           4650 	ld	de,#_Maze + 0 + 183
                           4651 ; genAssign (pointer)
   05C9 3E 02              4652 	ld	a,#0x02
   05CB 12                 4653 	ld	(de),a
                           4654 ;	main.c 150
                           4655 ; genPlus
                           4656 ; genPlusIncr
   05CC 11 D8 00           4657 	ld	de,#_Maze + 0 + 216
                           4658 ; genAssign (pointer)
   05CF 3E 02              4659 	ld	a,#0x02
   05D1 12                 4660 	ld	(de),a
                           4661 ; genGoto
   05D2 C3 92 00           4662 	jp	00151$
                           4663 ; genLabel
   05D5                    4664 00153$:
                           4665 ; genEndFunction
   05D5 E8 5D              4666 	lda	sp,93(sp)
   05D7 C1                 4667 	pop	bc
   05D8 C9                 4668 	ret
   05D9                    4669 ___main_end:
   05D9                    4670 __str_0:
   05D9 20 59 6F 75 20 57  4671 	.ascii " You Win! Press A to restart"
        69 6E 21 20 50 72
        65 73 73 20 41 20
        74 6F 20 72 65 73
        74 61 72 74
   05F5 00                 4672 	.db 0x00
                           4673 	.area _CODE
ASxxxx Assembler V01.75  (GameBoy Z80-like CPU), page 1.

Symbol Table

    _BCPD_REG                          **** GX
    _BCPS_REG                          **** GX
    _BGP_REG                           **** GX
    _DIV_REG                           **** GX
    _DMA_REG                           **** GX
    _HDMA1_REG                         **** GX
    _HDMA2_REG                         **** GX
    _HDMA3_REG                         **** GX
    _HDMA4_REG                         **** GX
    _HDMA5_REG                         **** GX
    _IE_REG                            **** GX
    _IF_REG                            **** GX
    _KEY1_REG                          **** GX
    _LCDC_REG                          **** GX
    _LYC_REG                           **** GX
    _LY_REG                            **** GX
  1 _Maze                              0000 GR
  1 _MazeTiles                         0198 GR
    _NR10_REG                          **** GX
    _NR11_REG                          **** GX
    _NR12_REG                          **** GX
    _NR13_REG                          **** GX
    _NR14_REG                          **** GX
    _NR21_REG                          **** GX
    _NR22_REG                          **** GX
    _NR23_REG                          **** GX
    _NR24_REG                          **** GX
    _NR30_REG                          **** GX
    _NR31_REG                          **** GX
    _NR32_REG                          **** GX
    _NR33_REG                          **** GX
    _NR34_REG                          **** GX
    _NR41_REG                          **** GX
    _NR42_REG                          **** GX
    _NR43_REG                          **** GX
    _NR44_REG                          **** GX
    _NR50_REG                          **** GX
    _NR51_REG                          **** GX
    _NR52_REG                          **** GX
    _OBP0_REG                          **** GX
    _OBP1_REG                          **** GX
    _OCPD_REG                          **** GX
    _OCPS_REG                          **** GX
    _P1_REG                            **** GX
  1 _PlayerCharacter                   0168 GR
    _RP_REG                            **** GX
    _SB_REG                            **** GX
    _SCX_REG                           **** GX
    _SCY_REG                           **** GX
    _SC_REG                            **** GX
    _STAT_REG                          **** GX
    _SVBK_REG                          **** GX
    _TAC_REG                           **** GX
    _TIMA_REG                          **** GX
    _TMA_REG                           **** GX
    _VBK_REG                           **** GX
    _WX_REG                            **** GX
    _WY_REG                            **** GX
  0 ____delay_end                      0014 R
  0 ____delay_start                    0000 R
  0 ___checkcollision_end              0089 R
  0 ___checkcollision_start            0014 R
  0 ___main_end                        05D9 R
  0 ___main_start                      0089 R
    __cpu                              **** GX
  0 __delay                            0000 GR
    __io_in                            **** GX
    __io_out                           **** GX
    __io_status                        **** GX
    __muluint                          **** GX
  0 __str_0                            05D9 R
  0 _checkcollision                    0014 GR
    _font_ibm                          **** GX
    _font_ibm_fixed                    **** GX
    _font_italic                       **** GX
    _font_min                          **** GX
    _font_spect                        **** GX
    _joypad                            **** GX
  0 _main                              0089 GR
    _move_sprite                       **** GX
  1 _playerlocation                    01D3 GR
    _printf                            **** GX
  1 _score                             01D5 GR
    _set_bkg_data                      **** GX
    _set_bkg_tiles                     **** GX
    _set_sprite_data                   **** GX
    _set_sprite_tile                   **** GX
    _sys_time                          **** GX
    _wait_vbl_done                     **** GX
  1 _windowmap                         01C8 GR

ASxxxx Assembler V01.75  (GameBoy Z80-like CPU), page 2.

Area Table

   0 _CODE                              size  5F6   flags 0
   1 _DATA                              size  1D6   flags 0
   2 _OVERLAY                           size    0   flags 0
   3 _ISEG                              size    0   flags 0
   4 _BSEG                              size    0   flags 0
   5 _XSEG                              size    0   flags 0
   6 _GSINIT                            size  AF7   flags 0
   7 _GSFINAL                           size    0   flags 0
   8 _HOME                              size    0   flags 0
